
HeLlOwOrLD.elf:     file format elf32-littlenios2
HeLlOwOrLD.elf
architecture: nios2:r1, flags 0x00000112:
EXEC_P, HAS_SYMS, D_PAGED
start address 0x00800244

Program Header:
    LOAD off    0x00001000 vaddr 0x00800000 paddr 0x00800000 align 2**12
         filesz 0x00000020 memsz 0x00000020 flags r-x
    LOAD off    0x00001020 vaddr 0x00800020 paddr 0x00800020 align 2**12
         filesz 0x0000f648 memsz 0x0000f648 flags r-x
    LOAD off    0x00010668 vaddr 0x0080f668 paddr 0x008112c0 align 2**12
         filesz 0x00001c58 memsz 0x00001c58 flags rw-
    LOAD off    0x00012f18 vaddr 0x00812f18 paddr 0x00812f18 align 2**12
         filesz 0x00000000 memsz 0x00000160 flags rw-

Sections:
Idx Name          Size      VMA       LMA       File off  Algn
  0 .entry        00000020  00800000  00800000  00001000  2**5
                  CONTENTS, ALLOC, LOAD, READONLY, CODE
  1 .exceptions   00000224  00800020  00800020  00001020  2**2
                  CONTENTS, ALLOC, LOAD, READONLY, CODE
  2 .text         0000eff4  00800244  00800244  00001244  2**2
                  CONTENTS, ALLOC, LOAD, READONLY, CODE
  3 .rodata       00000430  0080f238  0080f238  00010238  2**2
                  CONTENTS, ALLOC, LOAD, READONLY, DATA
  4 .rwdata       00001c58  0080f668  008112c0  00010668  2**2
                  CONTENTS, ALLOC, LOAD, DATA, SMALL_DATA
  5 .bss          00000160  00812f18  00812f18  00012f18  2**2
                  ALLOC, SMALL_DATA
  6 .sdram        00000000  00813078  00813078  000122c0  2**0
                  CONTENTS
  7 .onchip_mem   00000000  01008000  01008000  000122c0  2**0
                  CONTENTS
  8 .comment      00000023  00000000  00000000  000122c0  2**0
                  CONTENTS, READONLY
  9 .debug_aranges 00000da0  00000000  00000000  000122e8  2**3
                  CONTENTS, READONLY, DEBUGGING
 10 .debug_info   000204f9  00000000  00000000  00013088  2**0
                  CONTENTS, READONLY, DEBUGGING
 11 .debug_abbrev 0000866c  00000000  00000000  00033581  2**0
                  CONTENTS, READONLY, DEBUGGING
 12 .debug_line   0000ab16  00000000  00000000  0003bbed  2**0
                  CONTENTS, READONLY, DEBUGGING
 13 .debug_frame  00001fa0  00000000  00000000  00046704  2**2
                  CONTENTS, READONLY, DEBUGGING
 14 .debug_str    00003f11  00000000  00000000  000486a4  2**0
                  CONTENTS, READONLY, DEBUGGING
 15 .debug_loc    00009725  00000000  00000000  0004c5b5  2**0
                  CONTENTS, READONLY, DEBUGGING
 16 .debug_alt_sim_info 00000060  00000000  00000000  00055cdc  2**2
                  CONTENTS, READONLY, DEBUGGING
 17 .debug_ranges 00000f78  00000000  00000000  00055d40  2**3
                  CONTENTS, READONLY, DEBUGGING
 18 .thread_model 00000003  00000000  00000000  00059cd1  2**0
                  CONTENTS, READONLY
 19 .cpu          00000003  00000000  00000000  00059cd4  2**0
                  CONTENTS, READONLY
 20 .qsys         00000001  00000000  00000000  00059cd7  2**0
                  CONTENTS, READONLY
 21 .simulation_enabled 00000001  00000000  00000000  00059cd8  2**0
                  CONTENTS, READONLY
 22 .stderr_dev   00000009  00000000  00000000  00059cd9  2**0
                  CONTENTS, READONLY
 23 .stdin_dev    00000009  00000000  00000000  00059ce2  2**0
                  CONTENTS, READONLY
 24 .stdout_dev   00000009  00000000  00000000  00059ceb  2**0
                  CONTENTS, READONLY
 25 .sopc_system_name 0000000c  00000000  00000000  00059cf4  2**0
                  CONTENTS, READONLY
 26 .quartus_project_dir 00000043  00000000  00000000  00059d00  2**0
                  CONTENTS, READONLY
 27 .sopcinfo     0006b17b  00000000  00000000  00059d43  2**0
                  CONTENTS, READONLY
SYMBOL TABLE:
00800000 l    d  .entry	00000000 .entry
00800020 l    d  .exceptions	00000000 .exceptions
00800244 l    d  .text	00000000 .text
0080f238 l    d  .rodata	00000000 .rodata
0080f668 l    d  .rwdata	00000000 .rwdata
00812f18 l    d  .bss	00000000 .bss
00813078 l    d  .sdram	00000000 .sdram
01008000 l    d  .onchip_mem	00000000 .onchip_mem
00000000 l    d  .comment	00000000 .comment
00000000 l    d  .debug_aranges	00000000 .debug_aranges
00000000 l    d  .debug_info	00000000 .debug_info
00000000 l    d  .debug_abbrev	00000000 .debug_abbrev
00000000 l    d  .debug_line	00000000 .debug_line
00000000 l    d  .debug_frame	00000000 .debug_frame
00000000 l    d  .debug_str	00000000 .debug_str
00000000 l    d  .debug_loc	00000000 .debug_loc
00000000 l    d  .debug_alt_sim_info	00000000 .debug_alt_sim_info
00000000 l    d  .debug_ranges	00000000 .debug_ranges
00000000 l    df *ABS*	00000000 ../HeLlOwOrLD_bsp//obj/HAL/src/crt0.o
0080028c l       .text	00000000 alt_after_alt_main
00000000 l    df *ABS*	00000000 alt_irq_handler.c
00000000 l    df *ABS*	00000000 alt_instruction_exception_entry.c
00000000 l    df *ABS*	00000000 hello_world.c
00000000 l    df *ABS*	00000000 pacecharts.c
00000000 l    df *ABS*	00000000 libgcc2.c
00000000 l    df *ABS*	00000000 adddf3.c
00000000 l    df *ABS*	00000000 gedf2.c
00000000 l    df *ABS*	00000000 ledf2.c
00000000 l    df *ABS*	00000000 muldf3.c
00000000 l    df *ABS*	00000000 subdf3.c
00000000 l    df *ABS*	00000000 floatsidf.c
00000000 l    df *ABS*	00000000 floatunsidf.c
00000000 l    df *ABS*	00000000 libgcc2.c
00000000 l    df *ABS*	00000000 libgcc2.c
00000000 l    df *ABS*	00000000 fopen.c
00000000 l    df *ABS*	00000000 fseek.c
00000000 l    df *ABS*	00000000 fseeko.c
00000000 l    df *ABS*	00000000 fstatr.c
00000000 l    df *ABS*	00000000 impure.c
0080f668 l     O .rwdata	00000424 impure_data
00000000 l    df *ABS*	00000000 int_errno.c
00000000 l    df *ABS*	00000000 makebuf.c
00000000 l    df *ABS*	00000000 mallocr.c
00000000 l    df *ABS*	00000000 memset.c
00000000 l    df *ABS*	00000000 openr.c
00000000 l    df *ABS*	00000000 puts.c
00000000 l    df *ABS*	00000000 refill.c
00808b54 l     F .text	0000001c lflush
00000000 l    df *ABS*	00000000 sbrkr.c
00000000 l    df *ABS*	00000000 stdio.c
00000000 l    df *ABS*	00000000 strlen.c
00000000 l    df *ABS*	00000000 writer.c
00000000 l    df *ABS*	00000000 closer.c
00000000 l    df *ABS*	00000000 fflush.c
00000000 l    df *ABS*	00000000 findfp.c
008092c8 l     F .text	00000008 __fp_unlock
008092dc l     F .text	0000019c __sinit.part.1
00809478 l     F .text	00000008 __fp_lock
00000000 l    df *ABS*	00000000 flags.c
00000000 l    df *ABS*	00000000 mallocr.c
00000000 l    df *ABS*	00000000 fvwrite.c
00000000 l    df *ABS*	00000000 fwalk.c
00000000 l    df *ABS*	00000000 isattyr.c
00000000 l    df *ABS*	00000000 lseekr.c
00000000 l    df *ABS*	00000000 memchr.c
00000000 l    df *ABS*	00000000 memcpy.c
00000000 l    df *ABS*	00000000 memmove.c
00000000 l    df *ABS*	00000000 readr.c
00000000 l    df *ABS*	00000000 mallocr.c
00000000 l    df *ABS*	00000000 wsetup.c
00000000 l    df *ABS*	00000000 fclose.c
00000000 l    df *ABS*	00000000 lib2-divmod.c
00000000 l    df *ABS*	00000000 alt_alarm_start.c
00000000 l    df *ABS*	00000000 alt_close.c
0080b0c4 l     F .text	0000003c alt_get_errno
00000000 l    df *ABS*	00000000 alt_dev.c
0080b1d0 l     F .text	0000002c alt_dev_null_write
00000000 l    df *ABS*	00000000 alt_errno.c
00000000 l    df *ABS*	00000000 alt_fstat.c
0080b1fc l     F .text	0000003c alt_get_errno
00000000 l    df *ABS*	00000000 alt_irq_register.c
00000000 l    df *ABS*	00000000 alt_irq_vars.c
00000000 l    df *ABS*	00000000 alt_isatty.c
0080b468 l     F .text	0000003c alt_get_errno
00000000 l    df *ABS*	00000000 alt_load.c
0080b548 l     F .text	00000068 alt_load_section
00000000 l    df *ABS*	00000000 alt_lseek.c
0080b634 l     F .text	0000003c alt_get_errno
00000000 l    df *ABS*	00000000 alt_main.c
00000000 l    df *ABS*	00000000 alt_malloc_lock.c
00000000 l    df *ABS*	00000000 alt_open.c
0080b808 l     F .text	0000003c alt_get_errno
0080b844 l     F .text	000000c4 alt_file_locked
00000000 l    df *ABS*	00000000 alt_read.c
0080ba5c l     F .text	0000003c alt_get_errno
00000000 l    df *ABS*	00000000 alt_release_fd.c
00000000 l    df *ABS*	00000000 alt_sbrk.c
008112ac l     O .rwdata	00000004 heap_end
00000000 l    df *ABS*	00000000 alt_tick.c
00000000 l    df *ABS*	00000000 alt_write.c
0080be4c l     F .text	0000003c alt_get_errno
00000000 l    df *ABS*	00000000 alt_sys_init.c
0080bf80 l     F .text	00000034 alt_dev_reg
0081003c l     O .rwdata	00001060 jtag_uart
0081109c l     O .rwdata	00000120 lcd
008111bc l     O .rwdata	000000c4 uart
00000000 l    df *ABS*	00000000 altera_avalon_jtag_uart_fd.c
00000000 l    df *ABS*	00000000 altera_avalon_jtag_uart_init.c
0080c2a8 l     F .text	0000020c altera_avalon_jtag_uart_irq
0080c4b4 l     F .text	000000a0 altera_avalon_jtag_uart_timeout
00000000 l    df *ABS*	00000000 altera_avalon_jtag_uart_ioctl.c
00000000 l    df *ABS*	00000000 altera_avalon_jtag_uart_read.c
00000000 l    df *ABS*	00000000 altera_avalon_jtag_uart_write.c
00000000 l    df *ABS*	00000000 altera_avalon_lcd_16207.c
008112b8 l     O .rwdata	00000004 colstart
0080caec l     F .text	000000b8 lcd_write_command
0080cba4 l     F .text	000000d8 lcd_write_data
0080cc7c l     F .text	000000d0 lcd_clear_screen
0080cd4c l     F .text	000001ec lcd_repaint_screen
0080cf38 l     F .text	000000cc lcd_scroll_up
0080d004 l     F .text	000002ac lcd_handle_escape
0080d788 l     F .text	000000ac alt_lcd_16207_timeout
00000000 l    df *ABS*	00000000 altera_avalon_lcd_16207_fd.c
00000000 l    df *ABS*	00000000 altera_avalon_timer_sc.c
0080d9c8 l     F .text	00000078 alt_avalon_timer_sc_irq
00000000 l    df *ABS*	00000000 altera_avalon_uart_fd.c
00000000 l    df *ABS*	00000000 altera_avalon_uart_init.c
0080dc78 l     F .text	0000009c altera_avalon_uart_irq
0080dd14 l     F .text	000000e4 altera_avalon_uart_rxirq
0080ddf8 l     F .text	00000148 altera_avalon_uart_txirq
00000000 l    df *ABS*	00000000 altera_avalon_uart_read.c
0080df94 l     F .text	0000003c alt_get_errno
00000000 l    df *ABS*	00000000 altera_avalon_uart_write.c
0080e1ac l     F .text	0000003c alt_get_errno
00000000 l    df *ABS*	00000000 alt_dcache_flush_all.c
00000000 l    df *ABS*	00000000 alt_dev_llist_insert.c
0080e3dc l     F .text	0000003c alt_get_errno
00000000 l    df *ABS*	00000000 alt_do_ctors.c
00000000 l    df *ABS*	00000000 alt_do_dtors.c
00000000 l    df *ABS*	00000000 alt_find_dev.c
00000000 l    df *ABS*	00000000 alt_find_file.c
00000000 l    df *ABS*	00000000 alt_get_fd.c
00000000 l    df *ABS*	00000000 alt_icache_flush_all.c
00000000 l    df *ABS*	00000000 alt_iic.c
00000000 l    df *ABS*	00000000 alt_iic_isr_register.c
00000000 l    df *ABS*	00000000 alt_io_redirect.c
0080ea8c l     F .text	000000c4 alt_open_fd
00000000 l    df *ABS*	00000000 alt_usleep.c
00000000 l    df *ABS*	00000000 altera_nios2_gen2_irq.c
00000000 l    df *ABS*	00000000 alt_busy_sleep.c
00000000 l    df *ABS*	00000000 alt_icache_flush.c
00000000 l    df *ABS*	00000000 atexit.c
00000000 l    df *ABS*	00000000 ctype_.c
0080f4e7 l     O .rodata	00000180 _ctype_b
00000000 l    df *ABS*	00000000 exit.c
00000000 l    df *ABS*	00000000 memcmp.c
00000000 l    df *ABS*	00000000 __atexit.c
00000000 l    df *ABS*	00000000 __call_atexit.c
00000000 l    df *ABS*	00000000 alt_exit.c
00812f4c g     O .bss	00000004 alt_instruction_exception_handler
0080a18c g     F .text	00000054 _isatty_r
0080b744 g     F .text	0000007c alt_main
00808a80 g     F .text	000000c0 _puts_r
00812f78 g     O .bss	00000100 alt_irq
0080a1e0 g     F .text	00000060 _lseek_r
008112c0 g       *ABS*	00000000 __flash_rwdata_start
00809668 g     F .text	000000ac __sflags
00813078 g       *ABS*	00000000 __alt_heap_start
00808e70 g     F .text	0000005c __sseek
00809618 g     F .text	00000010 __sinit
00809480 g     F .text	00000068 __sfmoreglue
0080b7e4 g     F .text	00000024 __malloc_unlock
0080a46c g     F .text	0000015c memmove
008003a4 g     F .text	00000040 getGreenLED
00809600 g     F .text	00000018 _cleanup
0080657c g     F .text	000000dc .hidden __gtdf2
0080ebfc g     F .text	00000024 altera_nios2_gen2_irq_init
00800000 g     F .entry	0000001c __reset
00800020 g       *ABS*	00000000 __flash_exceptions_start
00807ed4 g     F .text	0000005c _fstat_r
00812f24 g     O .bss	00000004 errno
00808dec g     F .text	00000008 __seofread
00812f3c g     O .bss	00000004 alt_argv
00819280 g       *ABS*	00000000 _gp
0080ebcc g     F .text	00000030 usleep
0080581c g     F .text	000001f8 reset
0080febc g     O .rwdata	00000180 alt_fd_list
0080e57c g     F .text	00000090 alt_find_dev
0080a324 g     F .text	00000148 memcpy
008092d0 g     F .text	0000000c _cleanup_r
00807760 g     F .text	000000dc .hidden __floatsidf
0080eb50 g     F .text	0000007c alt_io_redirect
00806658 g     F .text	000000f4 .hidden __ltdf2
00800424 g     F .text	00000038 vsLEDISR
0080f238 g       *ABS*	00000000 __DTOR_END__
00808b40 g     F .text	00000014 puts
0080ee08 g     F .text	0000009c alt_exception_cause_generated_bad_addr
0080c6ac g     F .text	0000021c altera_avalon_jtag_uart_read
0080aedc g     F .text	00000064 .hidden __udivsi3
0080b4a4 g     F .text	000000a4 isatty
0080ed78 g     F .text	00000090 alt_icache_flush
00812f30 g     O .bss	00000004 __malloc_top_pad
00809b48 g     F .text	000004bc __sfvwrite_r
00808d44 g     F .text	00000054 _sbrk_r
0080a5c8 g     F .text	00000060 _read_r
008112a0 g     O .rwdata	00000004 alt_max_fd
0080ace0 g     F .text	000000f0 _fclose_r
00809298 g     F .text	00000030 fflush
00812f2c g     O .bss	00000004 __malloc_max_sbrked_mem
0080b2e8 g     F .text	00000180 alt_irq_register
00805cd0 g     F .text	000008ac .hidden __adddf3
0080b670 g     F .text	000000d4 lseek
00811280 g     O .rwdata	00000004 _global_impure_ptr
0080a628 g     F .text	00000564 _realloc_r
00813078 g       *ABS*	00000000 __bss_end
0080e99c g     F .text	000000f0 alt_iic_isr_register
0080bd44 g     F .text	00000108 alt_tick
0080783c g     F .text	000000a8 .hidden __floatunsidf
0080dbcc g     F .text	000000ac altera_avalon_uart_init
00809638 g     F .text	00000018 __fp_lock_all
0080e950 g     F .text	0000004c alt_ic_irq_enabled
0080bca8 g     F .text	0000009c alt_alarm_stop
00812f34 g     O .bss	00000004 alt_irq_active
00807a74 g     F .text	00000444 _fseeko_r
01008000 g       *ABS*	00000000 __alt_mem_onchip_mem
008000fc g     F .exceptions	000000d4 alt_irq_handler
0080fe94 g     O .rwdata	00000028 alt_dev_null
0080e394 g     F .text	00000048 alt_dcache_flush_all
008112c0 g       *ABS*	00000000 __ram_rwdata_end
00811298 g     O .rwdata	00000008 alt_dev_list
0080be88 g     F .text	000000f8 write
0080f668 g       *ABS*	00000000 __ram_rodata_end
0080b238 g     F .text	000000b0 fstat
00806658 g     F .text	000000f4 .hidden __ledf2
00812f18 g     O .bss	00000004 buttonVS
0080af40 g     F .text	00000058 .hidden __umodsi3
00813078 g       *ABS*	00000000 end
0080d2b0 g     F .text	000004d8 altera_avalon_lcd_16207_write
00807eb8 g     F .text	0000001c fseeko
0080e1e8 g     F .text	000001ac altera_avalon_uart_write
00807a58 g     F .text	0000001c fseek
0080c1e8 g     F .text	000000c0 altera_avalon_jtag_uart_init
008001d0 g     F .exceptions	00000074 alt_instruction_exception_entry
0080f238 g       *ABS*	00000000 __CTOR_LIST__
01000000 g       *ABS*	00000000 __alt_stack_pointer
0080da40 g     F .text	0000007c alt_avalon_timer_sc_init
0080db1c g     F .text	00000060 altera_avalon_uart_write_fd
008078e4 g     F .text	00000064 .hidden __clzsi2
0080db7c g     F .text	00000050 altera_avalon_uart_close_fd
0080c8c8 g     F .text	00000224 altera_avalon_jtag_uart_write
00809628 g     F .text	00000004 __sfp_lock_acquire
0080a240 g     F .text	000000e4 memchr
00809838 g     F .text	00000310 _free_r
0080f084 g     F .text	00000180 __call_exitprocs
00811288 g     O .rwdata	00000004 __malloc_sbrk_base
00800244 g     F .text	0000004c _start
00812f44 g     O .bss	00000004 _alt_tick_rate
00805c60 g     F .text	00000070 .hidden __floatundidf
00812f48 g     O .bss	00000004 _alt_nticks
0080ba98 g     F .text	000000fc read
0080bfec g     F .text	00000098 alt_sys_init
00808a20 g     F .text	00000060 _open_r
0080ef6c g     F .text	00000118 __register_exitproc
0080c554 g     F .text	00000068 altera_avalon_jtag_uart_close
0080f668 g       *ABS*	00000000 __ram_rwdata_start
0080f238 g       *ABS*	00000000 __ram_rodata_start
00812f50 g     O .bss	00000028 __malloc_current_mallinfo
0080c084 g     F .text	00000060 altera_avalon_jtag_uart_read_fd
0080e714 g     F .text	000000a4 alt_get_fd
0080ec20 g     F .text	00000158 alt_busy_sleep
0080075c g     F .text	00000168 mode_2
00808fcc g     F .text	00000054 _close_r
0080eef0 g     F .text	0000007c memcmp
0080c144 g     F .text	00000050 altera_avalon_jtag_uart_close_fd
00813078 g       *ABS*	00000000 __alt_stack_base
0080c194 g     F .text	00000054 altera_avalon_jtag_uart_ioctl_fd
0080ab8c g     F .text	00000154 __swsetup_r
00805a14 g     F .text	0000024c tick
008094e8 g     F .text	00000118 __sfp
0080fa8c g     O .rwdata	00000408 __malloc_av_
00809634 g     F .text	00000004 __sinit_lock_release
0080674c g     F .text	00000718 .hidden __muldf3
00808d98 g     F .text	00000054 __sread
0080e60c g     F .text	00000108 alt_find_file
0080e418 g     F .text	000000a4 alt_dev_llist_insert
0080b7c0 g     F .text	00000024 __malloc_lock
0080bbf8 g     F .text	000000b0 sbrk
0080923c g     F .text	0000005c _fflush_r
00807a3c g     F .text	00000018 fopen
00812f18 g       *ABS*	00000000 __bss_start
008088f8 g     F .text	00000128 memset
008008c4 g     F .text	00000174 main
00812f40 g     O .bss	00000004 alt_envp
00812f28 g     O .bss	00000004 __malloc_max_total_mem
0080c0e4 g     F .text	00000060 altera_avalon_jtag_uart_write_fd
0080d834 g     F .text	00000134 altera_avalon_lcd_16207_init
00808ecc g     F .text	00000008 __sclose
01000000 g       *ABS*	00000000 __alt_heap_limit
0080add0 g     F .text	00000014 fclose
00800290 g     F .text	00000088 button_interrupt_function
008080ec g     F .text	0000080c _malloc_r
008112a4 g     O .rwdata	00000004 alt_errno
0080a004 g     F .text	000000c4 _fwalk
0080ade4 g     F .text	00000084 .hidden __divsi3
00809714 g     F .text	00000124 _malloc_trim_r
0080f238 g       *ABS*	00000000 __CTOR_END__
00800504 g     F .text	00000068 setup_interrupt
00800494 g     F .text	00000038 apLEDISR
00800318 g     F .text	0000008c setGreenLED
0080f238 g       *ABS*	00000000 __flash_rodata_start
0080f238 g       *ABS*	00000000 __DTOR_LIST__
0080bfb4 g     F .text	00000038 alt_irq_init
0080bb94 g     F .text	00000064 alt_release_fd
0080f299 g     O .rodata	00000100 .hidden __clz_tab
0080eea4 g     F .text	00000014 atexit
00808f6c g     F .text	00000060 _write_r
00811284 g     O .rwdata	00000004 _impure_ptr
00812f38 g     O .bss	00000004 alt_argc
00809020 g     F .text	0000021c __sflush_r
0080e51c g     F .text	00000060 _do_dtors
00807a54 g     F .text	00000004 _fseek_r
00808b70 g     F .text	000001d4 __srefill_r
00800020 g       .exceptions	00000000 alt_irq_entry
00809650 g     F .text	00000018 __fp_unlock_all
0080d968 g     F .text	00000060 altera_avalon_lcd_16207_write_fd
00811290 g     O .rwdata	00000008 alt_fs_list
008004cc g     F .text	00000038 vpLEDISR
00800020 g       *ABS*	00000000 __ram_exceptions_start
00812f1c g     O .bss	00000004 turnOffLED
008003e4 g     F .text	00000040 timerISR
0080e7ec g     F .text	00000050 alt_ic_isr_register
008112c0 g       *ABS*	00000000 _edata
0080dabc g     F .text	00000060 altera_avalon_uart_read_fd
00813078 g       *ABS*	00000000 _end
00800244 g       *ABS*	00000000 __ram_exceptions_end
0080c5bc g     F .text	000000f0 altera_avalon_jtag_uart_ioctl
0080e8c4 g     F .text	0000008c alt_ic_irq_disable
00808df4 g     F .text	0000007c __swrite
0081128c g     O .rwdata	00000004 __malloc_trim_threshold
0080eeb8 g     F .text	00000038 exit
0080a0c8 g     F .text	000000c4 _fwalk_reent
0080ae68 g     F .text	00000074 .hidden __modsi3
00800a38 g     F .text	00004de4 logic
008112bc g     O .rwdata	00000004 __ctype_ptr__
01000000 g       *ABS*	00000000 __alt_data_end
00800020 g     F .exceptions	00000000 alt_exception
0080962c g     F .text	00000004 __sfp_lock_release
00800000 g       *ABS*	00000000 __alt_mem_sdram
0080f3e6 g     O .rodata	00000101 _ctype_
0080df40 g     F .text	00000054 altera_avalon_uart_close
00807948 g     F .text	000000f4 _fopen_r
0080f204 g     F .text	00000034 _exit
0080af98 g     F .text	0000012c alt_alarm_start
00807f30 g     F .text	000001bc __smakebuf_r
0080056c g     F .text	000001f0 mode_1
00808ed4 g     F .text	00000098 strlen
0080b908 g     F .text	00000154 open
0080657c g     F .text	000000dc .hidden __gedf2
0080e7b8 g     F .text	00000034 alt_icache_flush_all
008112a8 g     O .rwdata	00000004 alt_priority_mask
0080e83c g     F .text	00000088 alt_ic_irq_enable
0080dfd0 g     F .text	000001dc altera_avalon_uart_read
00806e64 g     F .text	000008fc .hidden __subdf3
008112b0 g     O .rwdata	00000008 alt_alarm_list
0080e4bc g     F .text	00000060 _do_ctors
00812f20 g     O .bss	00000004 buttonAS
0080b100 g     F .text	000000d0 close
0080b5b0 g     F .text	00000084 alt_load
0080045c g     F .text	00000038 asLEDISR
00809630 g     F .text	00000004 __sinit_lock_acquire



Disassembly of section .entry:

00800000 <__reset>:
#if NIOS2_ICACHE_SIZE > 0 && defined(ALT_ALLOW_CODE_AT_RESET) && (!defined(ALT_SIM_OPTIMIZE) || defined(NIOS2_ECC_PRESENT))
    /* Assume the instruction cache size is always a power of two. */
#if NIOS2_ICACHE_SIZE > 0x8000
    movhi r2, %hi(NIOS2_ICACHE_SIZE)
#else
    movui r2, NIOS2_ICACHE_SIZE
  800000:	00840014 	movui	r2,4096
#endif

0:
    initi r2
  800004:	1001483a 	initi	r2
    addi r2, r2, -NIOS2_ICACHE_LINE_SIZE
  800008:	10bff804 	addi	r2,r2,-32
    bgt r2, zero, 0b
  80000c:	00bffd16 	blt	zero,r2,800004 <__alt_mem_onchip_mem+0xff7f8004>
 * Jump to the _start entry point in the .text section if reset code
 * is allowed or if optimizing for RTL simulation.
 */
#if defined(ALT_ALLOW_CODE_AT_RESET) || defined(ALT_SIM_OPTIMIZE)
    /* Jump to the _start entry point in the .text section. */
    movhi r1, %hi(_start)
  800010:	00402034 	movhi	at,128
    ori r1, r1, %lo(_start)
  800014:	08409114 	ori	at,at,580
    jmp r1
  800018:	0800683a 	jmp	at
  80001c:	00000000 	call	0 <__alt_mem_sdram-0x800000>

Disassembly of section .exceptions:

00800020 <alt_exception>:

#else /* ALT_EXCEPTION_STACK disabled */
        /* 
         * Reserve space on normal stack for registers about to be pushed.
         */
        addi  sp, sp, -76
  800020:	deffed04 	addi	sp,sp,-76
         * documentation for details).
         *
         * Leave a gap in the stack frame at 4(sp) for the muldiv handler to
         * store zero into.
         */
        stw   ra,  0(sp)
  800024:	dfc00015 	stw	ra,0(sp)
        stw   r1,   8(sp)
  800028:	d8400215 	stw	at,8(sp)
        stw   r2,  12(sp)
  80002c:	d8800315 	stw	r2,12(sp)
        stw   r3,  16(sp)
  800030:	d8c00415 	stw	r3,16(sp)
        stw   r4,  20(sp)
  800034:	d9000515 	stw	r4,20(sp)
        stw   r5,  24(sp)
  800038:	d9400615 	stw	r5,24(sp)
        stw   r6,  28(sp)
  80003c:	d9800715 	stw	r6,28(sp)
        stw   r7,  32(sp)
  800040:	d9c00815 	stw	r7,32(sp)
        rdctl r5, estatus   /* Read early to avoid usage stall */
  800044:	000b307a 	rdctl	r5,estatus
        stw   r8,  36(sp)
  800048:	da000915 	stw	r8,36(sp)
        stw   r9,  40(sp)
  80004c:	da400a15 	stw	r9,40(sp)
        stw   r10, 44(sp)
  800050:	da800b15 	stw	r10,44(sp)
        stw   r11, 48(sp)
  800054:	dac00c15 	stw	r11,48(sp)
        stw   r12, 52(sp)
  800058:	db000d15 	stw	r12,52(sp)
        stw   r13, 56(sp)
  80005c:	db400e15 	stw	r13,56(sp)
        stw   r14, 60(sp)
  800060:	db800f15 	stw	r14,60(sp)
        stw   r15, 64(sp)
  800064:	dbc01015 	stw	r15,64(sp)
        /*
         * ea-4 contains the address of the instruction being executed
         * when the exception occured. For interrupt exceptions, we will
         * will be re-issue the isntruction. Store it in 72(sp)
         */
        stw   r5,  68(sp)  /* estatus */
  800068:	d9401115 	stw	r5,68(sp)
        addi  r15, ea, -4  /* instruction that caused exception */
  80006c:	ebffff04 	addi	r15,ea,-4
        stw   r15,  72(sp)
  800070:	dbc01215 	stw	r15,72(sp)
#else
        /*
         * Test to see if the exception was a software exception or caused 
         * by an external interrupt, and vector accordingly.
         */
        rdctl r4, ipending
  800074:	0009313a 	rdctl	r4,ipending
        andi  r2, r5, 1
  800078:	2880004c 	andi	r2,r5,1
        beq   r2, zero, .Lnot_irq
  80007c:	10000326 	beq	r2,zero,80008c <alt_exception+0x6c>
        beq   r4, zero, .Lnot_irq
  800080:	20000226 	beq	r4,zero,80008c <alt_exception+0x6c>
        /*
         * Now that all necessary registers have been preserved, call 
         * alt_irq_handler() to process the interrupts.
         */

        call alt_irq_handler
  800084:	08000fc0 	call	8000fc <alt_irq_handler>

        .section .exceptions.irqreturn, "xa"

        br    .Lexception_exit
  800088:	00000706 	br	8000a8 <alt_exception+0x88>
         * upon completion, so we write ea (address of instruction *after*
         * the one where the exception occured) into 72(sp). The actual
         * instruction that caused the exception is written in r2, which these
         * handlers will utilize.
         */
        stw ea, 72(sp) /* EA is PC+4 so will skip over instruction causing exception */
  80008c:	df401215 	stw	ea,72(sp)
.Lunknown_16bit:
        addi.n r4, r4, 2 /* Need PC+2 to skip over instruction causing exception */
        stw r4, 72(sp)

#else /* CDX is not Enabled and all instructions are 32bits */
        ldw r2, -4(ea) /* Instruction value that caused exception */
  800090:	e8bfff17 	ldw	r2,-4(ea)
         * debugger is present) or go into an infinite loop since the
         * handling behavior is undefined; in that case we will not return here.
         */

        /* Load exception-causing address as first argument (r4) */
        addi   r4, ea, -4
  800094:	e93fff04 	addi	r4,ea,-4

        /* Call the instruction-exception entry */
        call   alt_instruction_exception_entry
  800098:	08001d00 	call	8001d0 <alt_instruction_exception_entry>
         * instruction
         *
         * Return code was 0: Skip. The instruction after the exception is
         * already stored in 72(sp).
         */
        bne   r2, r0, .Lexception_exit
  80009c:	1000021e 	bne	r2,zero,8000a8 <alt_exception+0x88>

        /*
         * Otherwise, modify 72(sp) to re-issue the instruction that caused the
         * exception.
         */
        addi  r15, ea, -4  /* instruction that caused exception */
  8000a0:	ebffff04 	addi	r15,ea,-4
        stw   r15,  72(sp)
  8000a4:	dbc01215 	stw	r15,72(sp)
        /* 
         * Restore the saved registers, so that all general purpose registers 
         * have been restored to their state at the time the interrupt occured.
         */

        ldw   r5,  68(sp)
  8000a8:	d9401117 	ldw	r5,68(sp)
        ldw   ea,  72(sp)  /* This becomes the PC once eret is executed */
  8000ac:	df401217 	ldw	ea,72(sp)
        ldw   ra,   0(sp)
  8000b0:	dfc00017 	ldw	ra,0(sp)

        wrctl estatus, r5
  8000b4:	2801707a 	wrctl	estatus,r5

        ldw   r1,   8(sp)
  8000b8:	d8400217 	ldw	at,8(sp)
        ldw   r2,  12(sp)
  8000bc:	d8800317 	ldw	r2,12(sp)
        ldw   r3,  16(sp)
  8000c0:	d8c00417 	ldw	r3,16(sp)
        ldw   r4,  20(sp)
  8000c4:	d9000517 	ldw	r4,20(sp)
        ldw   r5,  24(sp)
  8000c8:	d9400617 	ldw	r5,24(sp)
        ldw   r6,  28(sp)
  8000cc:	d9800717 	ldw	r6,28(sp)
        ldw   r7,  32(sp)
  8000d0:	d9c00817 	ldw	r7,32(sp)

#if defined(ALT_EXCEPTION_STACK) && defined(ALT_STACK_CHECK)
        ldw   et, %gprel(alt_exception_old_stack_limit)(gp)
#endif

        ldw   r8,  36(sp)
  8000d4:	da000917 	ldw	r8,36(sp)
        ldw   r9,  40(sp)
  8000d8:	da400a17 	ldw	r9,40(sp)
        ldw   r10, 44(sp)
  8000dc:	da800b17 	ldw	r10,44(sp)
        ldw   r11, 48(sp)
  8000e0:	dac00c17 	ldw	r11,48(sp)
        ldw   r12, 52(sp)
  8000e4:	db000d17 	ldw	r12,52(sp)
        ldw   r13, 56(sp)
  8000e8:	db400e17 	ldw	r13,56(sp)
        ldw   r14, 60(sp)
  8000ec:	db800f17 	ldw	r14,60(sp)
        ldw   r15, 64(sp)
  8000f0:	dbc01017 	ldw	r15,64(sp)
        stw   et, %gprel(alt_stack_limit_value)(gp)
        stw   zero, %gprel(alt_exception_old_stack_limit)(gp)
#endif /* ALT_STACK_CHECK */
        ldw   sp,  76(sp)
#else /* ALT_EXCEPTION_STACK disabled */
        addi  sp, sp, 76
  8000f4:	dec01304 	addi	sp,sp,76

        /*
         * Return to the interrupted instruction.
         */

        eret
  8000f8:	ef80083a 	eret

008000fc <alt_irq_handler>:
 * instruction is present if the macro ALT_CI_INTERRUPT_VECTOR defined.
 */

void alt_irq_handler (void) __attribute__ ((section (".exceptions")));
void alt_irq_handler (void)
{
  8000fc:	defff904 	addi	sp,sp,-28
  800100:	dfc00615 	stw	ra,24(sp)
  800104:	df000515 	stw	fp,20(sp)
  800108:	df000504 	addi	fp,sp,20
  
  /*
   * Notify the operating system that we are at interrupt level.
   */ 
  
  ALT_OS_INT_ENTER();
  80010c:	0001883a 	nop
#ifndef NIOS2_EIC_PRESENT
static ALT_INLINE alt_u32 ALT_ALWAYS_INLINE alt_irq_pending (void)
{
  alt_u32 active;

  NIOS2_READ_IPENDING (active);
  800110:	0005313a 	rdctl	r2,ipending
  800114:	e0bffe15 	stw	r2,-8(fp)

  return active;
  800118:	e0bffe17 	ldw	r2,-8(fp)
   * Consider the case where the high priority interupt is asserted during
   * the interrupt entry sequence for a lower priority interrupt to see why
   * this is the case.
   */

  active = alt_irq_pending ();
  80011c:	e0bffb15 	stw	r2,-20(fp)

  do
  {
    i = 0;
  800120:	e03ffd15 	stw	zero,-12(fp)
    mask = 1;
  800124:	00800044 	movi	r2,1
  800128:	e0bffc15 	stw	r2,-16(fp)
     * called to clear the interrupt condition.
     */

    do
    {
      if (active & mask)
  80012c:	e0fffb17 	ldw	r3,-20(fp)
  800130:	e0bffc17 	ldw	r2,-16(fp)
  800134:	1884703a 	and	r2,r3,r2
  800138:	10001426 	beq	r2,zero,80018c <alt_irq_handler+0x90>
      { 
#ifdef ALT_ENHANCED_INTERRUPT_API_PRESENT
        alt_irq[i].handler(alt_irq[i].context); 
  80013c:	00802074 	movhi	r2,129
  800140:	108bde04 	addi	r2,r2,12152
  800144:	e0fffd17 	ldw	r3,-12(fp)
  800148:	180690fa 	slli	r3,r3,3
  80014c:	10c5883a 	add	r2,r2,r3
  800150:	10c00017 	ldw	r3,0(r2)
  800154:	00802074 	movhi	r2,129
  800158:	108bde04 	addi	r2,r2,12152
  80015c:	e13ffd17 	ldw	r4,-12(fp)
  800160:	200890fa 	slli	r4,r4,3
  800164:	1105883a 	add	r2,r2,r4
  800168:	10800104 	addi	r2,r2,4
  80016c:	10800017 	ldw	r2,0(r2)
  800170:	1009883a 	mov	r4,r2
  800174:	183ee83a 	callr	r3
#else
        alt_irq[i].handler(alt_irq[i].context, i); 
#endif
        break;
  800178:	0001883a 	nop
#ifndef NIOS2_EIC_PRESENT
static ALT_INLINE alt_u32 ALT_ALWAYS_INLINE alt_irq_pending (void)
{
  alt_u32 active;

  NIOS2_READ_IPENDING (active);
  80017c:	0005313a 	rdctl	r2,ipending
  800180:	e0bfff15 	stw	r2,-4(fp)

  return active;
  800184:	e0bfff17 	ldw	r2,-4(fp)
  800188:	00000706 	br	8001a8 <alt_irq_handler+0xac>
      }
      mask <<= 1;
  80018c:	e0bffc17 	ldw	r2,-16(fp)
  800190:	1085883a 	add	r2,r2,r2
  800194:	e0bffc15 	stw	r2,-16(fp)
      i++;
  800198:	e0bffd17 	ldw	r2,-12(fp)
  80019c:	10800044 	addi	r2,r2,1
  8001a0:	e0bffd15 	stw	r2,-12(fp)

    } while (1);
  8001a4:	003fe106 	br	80012c <__alt_mem_onchip_mem+0xff7f812c>

    active = alt_irq_pending ();
  8001a8:	e0bffb15 	stw	r2,-20(fp)
    
  } while (active);
  8001ac:	e0bffb17 	ldw	r2,-20(fp)
  8001b0:	103fdb1e 	bne	r2,zero,800120 <__alt_mem_onchip_mem+0xff7f8120>

  /*
   * Notify the operating system that interrupt processing is complete.
   */ 

  ALT_OS_INT_EXIT();
  8001b4:	0001883a 	nop
}
  8001b8:	0001883a 	nop
  8001bc:	e037883a 	mov	sp,fp
  8001c0:	dfc00117 	ldw	ra,4(sp)
  8001c4:	df000017 	ldw	fp,0(sp)
  8001c8:	dec00204 	addi	sp,sp,8
  8001cc:	f800283a 	ret

008001d0 <alt_instruction_exception_entry>:
 * that handler if it has been registered. Absent a handler, it will
 * break break or hang as discussed below.
 */
int 
alt_instruction_exception_entry (alt_u32 exception_pc)
{
  8001d0:	defffb04 	addi	sp,sp,-20
  8001d4:	dfc00415 	stw	ra,16(sp)
  8001d8:	df000315 	stw	fp,12(sp)
  8001dc:	df000304 	addi	fp,sp,12
  8001e0:	e13fff15 	stw	r4,-4(fp)
 * NIOS2_EXCEPTION_CAUSE_NOT_PRESENT. Your handling routine should
 * check the validity of the cause argument before proceeding.
 */
#ifdef NIOS2_HAS_EXTRA_EXCEPTION_INFO
  /* Get exception cause & "badaddr" */
  NIOS2_READ_EXCEPTION(cause);
  8001e4:	000531fa 	rdctl	r2,exception
  8001e8:	e0bffd15 	stw	r2,-12(fp)
  cause = ( (cause & NIOS2_EXCEPTION_REG_CAUSE_MASK) >>
  8001ec:	e0bffd17 	ldw	r2,-12(fp)
  8001f0:	10801f0c 	andi	r2,r2,124
  8001f4:	1004d0ba 	srli	r2,r2,2
  8001f8:	e0bffd15 	stw	r2,-12(fp)
              NIOS2_EXCEPTION_REG_CAUSE_OFST );

  NIOS2_READ_BADADDR(badaddr);
  8001fc:	0005333a 	rdctl	r2,badaddr
  800200:	e0bffe15 	stw	r2,-8(fp)
#else
  cause = NIOS2_EXCEPTION_CAUSE_NOT_PRESENT;
  badaddr = 0;
#endif /* NIOS2_HAS_EXTRA_EXCEPTION_INFO */

  if(alt_instruction_exception_handler) {
  800204:	d0a73317 	ldw	r2,-25396(gp)
  800208:	10000726 	beq	r2,zero,800228 <alt_instruction_exception_entry+0x58>
     * Call handler. Its return value indicates whether the exception-causing
     * instruction should be re-issued. The code that called us,
     * alt_eceptions_entry.S, will look at this value and adjust the ea
     * register as necessary
     */
    return alt_instruction_exception_handler(cause, exception_pc, badaddr);
  80020c:	d0a73317 	ldw	r2,-25396(gp)
  800210:	e0fffd17 	ldw	r3,-12(fp)
  800214:	e1bffe17 	ldw	r6,-8(fp)
  800218:	e17fff17 	ldw	r5,-4(fp)
  80021c:	1809883a 	mov	r4,r3
  800220:	103ee83a 	callr	r2
  800224:	00000206 	br	800230 <alt_instruction_exception_entry+0x60>
   *    (a peripheral which negates its interrupt output before its
   *    interrupt handler has been executed will cause spurious interrupts)
   */
  else {
#ifdef NIOS2_HAS_DEBUG_STUB
    NIOS2_BREAK();
  800228:	003da03a 	break	0
      ;
#endif /* NIOS2_HAS_DEBUG_STUB */
  }

  /* We should not get here. Remove compiler warning. */
  return NIOS2_EXCEPTION_RETURN_REISSUE_INST;
  80022c:	0005883a 	mov	r2,zero
}
  800230:	e037883a 	mov	sp,fp
  800234:	dfc00117 	ldw	ra,4(sp)
  800238:	df000017 	ldw	fp,0(sp)
  80023c:	dec00204 	addi	sp,sp,8
  800240:	f800283a 	ret

Disassembly of section .text:

00800244 <_start>:

    /* Assume the data cache size is always a power of two. */
#if NIOS2_DCACHE_SIZE > 0x8000
    movhi r2, %hi(NIOS2_DCACHE_SIZE)
#else
    movui r2, NIOS2_DCACHE_SIZE
  800244:	00820014 	movui	r2,2048
#endif

0:
    initd 0(r2)
  800248:	10000033 	initd	0(r2)
#ifdef NIOS2_ECC_PRESENT
    addi r2, r2, -4
#else
    addi r2, r2, -NIOS2_DCACHE_LINE_SIZE
  80024c:	10bff804 	addi	r2,r2,-32
#endif
    bgt r2, zero, 0b
  800250:	00bffd16 	blt	zero,r2,800248 <__alt_mem_onchip_mem+0xff7f8248>

    /*
     * Now that the caches are initialized, set up the stack pointer and global pointer.
     * The values provided by the linker are assumed to be correctly aligned.
     */
    movhi sp, %hi(__alt_stack_pointer)
  800254:	06c04034 	movhi	sp,256
    ori sp, sp, %lo(__alt_stack_pointer)
  800258:	dec00014 	ori	sp,sp,0
    movhi gp, %hi(_gp)
  80025c:	06802074 	movhi	gp,129
    ori gp, gp, %lo(_gp)
  800260:	d6a4a014 	ori	gp,gp,37504
 */
#ifndef ALT_SIM_OPTIMIZE
    /* Log that the BSS is about to be cleared. */
    ALT_LOG_PUTS(alt_log_msg_bss)

    movhi r2, %hi(__bss_start)
  800264:	00802074 	movhi	r2,129
    ori r2, r2, %lo(__bss_start)
  800268:	108bc614 	ori	r2,r2,12056

    movhi r3, %hi(__bss_end)
  80026c:	00c02074 	movhi	r3,129
    ori r3, r3, %lo(__bss_end)
  800270:	18cc1e14 	ori	r3,r3,12408

    beq r2, r3, 1f
  800274:	10c00326 	beq	r2,r3,800284 <_start+0x40>

0:
    stw zero, (r2)
  800278:	10000015 	stw	zero,0(r2)
    addi r2, r2, 4
  80027c:	10800104 	addi	r2,r2,4
    bltu r2, r3, 0b
  800280:	10fffd36 	bltu	r2,r3,800278 <__alt_mem_onchip_mem+0xff7f8278>
     * section aren't defined until alt_load() has been called).
     */
    mov   et, zero
#endif

    call alt_load
  800284:	080b5b00 	call	80b5b0 <alt_load>

    /* Log that alt_main is about to be called. */
    ALT_LOG_PUTS(alt_log_msg_alt_main)

    /* Call the C entry point. It should never return. */
    call alt_main
  800288:	080b7440 	call	80b744 <alt_main>

0080028c <alt_after_alt_main>:

    /* Wait in infinite loop in case alt_main does return. */
alt_after_alt_main:
    br alt_after_alt_main
  80028c:	003fff06 	br	80028c <__alt_mem_onchip_mem+0xff7f828c>

00800290 <button_interrupt_function>:
	alt_alarm ticker_APLED;
	alt_alarm ticker_VPLED;

}Ticks;

void button_interrupt_function(void* context, alt_u32 id){
  800290:	defffc04 	addi	sp,sp,-16
  800294:	df000315 	stw	fp,12(sp)
  800298:	df000304 	addi	fp,sp,12
  80029c:	e13ffe15 	stw	r4,-8(fp)
  8002a0:	e17fff15 	stw	r5,-4(fp)
	int* temp = (int*) context; // casting context first
  8002a4:	e0bffe17 	ldw	r2,-8(fp)
  8002a8:	e0bffd15 	stw	r2,-12(fp)
	(*temp) = IORD_ALTERA_AVALON_PIO_EDGE_CAP(KEYS_BASE);
  8002ac:	00804074 	movhi	r2,257
  8002b0:	10842b04 	addi	r2,r2,4268
  8002b4:	10c00037 	ldwio	r3,0(r2)
  8002b8:	e0bffd17 	ldw	r2,-12(fp)
  8002bc:	10c00015 	stw	r3,0(r2)

	// clear edge capture register
	IOWR_ALTERA_AVALON_PIO_EDGE_CAP(KEYS_BASE,0);
  8002c0:	0007883a 	mov	r3,zero
  8002c4:	00804074 	movhi	r2,257
  8002c8:	10842b04 	addi	r2,r2,4268
  8002cc:	10c00035 	stwio	r3,0(r2)
	if(*temp == 2){
  8002d0:	e0bffd17 	ldw	r2,-12(fp)
  8002d4:	10800017 	ldw	r2,0(r2)
  8002d8:	10800098 	cmpnei	r2,r2,2
  8002dc:	1000031e 	bne	r2,zero,8002ec <button_interrupt_function+0x5c>

		buttonAS = 1;
  8002e0:	00800044 	movi	r2,1
  8002e4:	d0a72815 	stw	r2,-25440(gp)

	}else if (*temp == 1){
		buttonVS = 1;
	}
}
  8002e8:	00000606 	br	800304 <button_interrupt_function+0x74>
	IOWR_ALTERA_AVALON_PIO_EDGE_CAP(KEYS_BASE,0);
	if(*temp == 2){

		buttonAS = 1;

	}else if (*temp == 1){
  8002ec:	e0bffd17 	ldw	r2,-12(fp)
  8002f0:	10800017 	ldw	r2,0(r2)
  8002f4:	10800058 	cmpnei	r2,r2,1
  8002f8:	1000021e 	bne	r2,zero,800304 <button_interrupt_function+0x74>
		buttonVS = 1;
  8002fc:	00800044 	movi	r2,1
  800300:	d0a72615 	stw	r2,-25448(gp)
	}
}
  800304:	0001883a 	nop
  800308:	e037883a 	mov	sp,fp
  80030c:	df000017 	ldw	fp,0(sp)
  800310:	dec00104 	addi	sp,sp,4
  800314:	f800283a 	ret

00800318 <setGreenLED>:

void setGreenLED(uint pos, char val) {
  800318:	defffc04 	addi	sp,sp,-16
  80031c:	df000315 	stw	fp,12(sp)
  800320:	df000304 	addi	fp,sp,12
  800324:	e13ffe15 	stw	r4,-8(fp)
  800328:	2805883a 	mov	r2,r5
  80032c:	e0bfff05 	stb	r2,-4(fp)
	int current = IORD_ALTERA_AVALON_PIO_DATA(LEDS_GREEN_BASE);
  800330:	00804074 	movhi	r2,257
  800334:	10841c04 	addi	r2,r2,4208
  800338:	10800037 	ldwio	r2,0(r2)
  80033c:	e0bffd15 	stw	r2,-12(fp)
	//printf("Setting LED %d to %d\n", pos, val);
	if(val) {
  800340:	e0bfff07 	ldb	r2,-4(fp)
  800344:	10000926 	beq	r2,zero,80036c <setGreenLED+0x54>
		IOWR_ALTERA_AVALON_PIO_DATA(LEDS_GREEN_BASE, current | (1 << pos));
  800348:	00c00044 	movi	r3,1
  80034c:	e0bffe17 	ldw	r2,-8(fp)
  800350:	1886983a 	sll	r3,r3,r2
  800354:	e0bffd17 	ldw	r2,-12(fp)
  800358:	1886b03a 	or	r3,r3,r2
  80035c:	00804074 	movhi	r2,257
  800360:	10841c04 	addi	r2,r2,4208
  800364:	10c00035 	stwio	r3,0(r2)
	}
	else {
		IOWR_ALTERA_AVALON_PIO_DATA(LEDS_GREEN_BASE, current & (~(1 << pos)));
	}
}
  800368:	00000906 	br	800390 <setGreenLED+0x78>
	//printf("Setting LED %d to %d\n", pos, val);
	if(val) {
		IOWR_ALTERA_AVALON_PIO_DATA(LEDS_GREEN_BASE, current | (1 << pos));
	}
	else {
		IOWR_ALTERA_AVALON_PIO_DATA(LEDS_GREEN_BASE, current & (~(1 << pos)));
  80036c:	00c00044 	movi	r3,1
  800370:	e0bffe17 	ldw	r2,-8(fp)
  800374:	1884983a 	sll	r2,r3,r2
  800378:	0086303a 	nor	r3,zero,r2
  80037c:	e0bffd17 	ldw	r2,-12(fp)
  800380:	1886703a 	and	r3,r3,r2
  800384:	00804074 	movhi	r2,257
  800388:	10841c04 	addi	r2,r2,4208
  80038c:	10c00035 	stwio	r3,0(r2)
	}
}
  800390:	0001883a 	nop
  800394:	e037883a 	mov	sp,fp
  800398:	df000017 	ldw	fp,0(sp)
  80039c:	dec00104 	addi	sp,sp,4
  8003a0:	f800283a 	ret

008003a4 <getGreenLED>:

char getGreenLED(uint pos) {
  8003a4:	defffd04 	addi	sp,sp,-12
  8003a8:	df000215 	stw	fp,8(sp)
  8003ac:	df000204 	addi	fp,sp,8
  8003b0:	e13fff15 	stw	r4,-4(fp)
	int current = IORD_ALTERA_AVALON_PIO_DATA(LEDS_GREEN_BASE);
  8003b4:	00804074 	movhi	r2,257
  8003b8:	10841c04 	addi	r2,r2,4208
  8003bc:	10800037 	ldwio	r2,0(r2)
  8003c0:	e0bffe15 	stw	r2,-8(fp)
	return (current >> pos) & 0x1;
  8003c4:	e0fffe17 	ldw	r3,-8(fp)
  8003c8:	e0bfff17 	ldw	r2,-4(fp)
  8003cc:	1885d83a 	sra	r2,r3,r2
  8003d0:	1080004c 	andi	r2,r2,1
}
  8003d4:	e037883a 	mov	sp,fp
  8003d8:	df000017 	ldw	fp,0(sp)
  8003dc:	dec00104 	addi	sp,sp,4
  8003e0:	f800283a 	ret

008003e4 <timerISR>:

//source from aron, :)
alt_u32 timerISR(void* context){
  8003e4:	defffd04 	addi	sp,sp,-12
  8003e8:	df000215 	stw	fp,8(sp)
  8003ec:	df000204 	addi	fp,sp,8
  8003f0:	e13fff15 	stw	r4,-4(fp)
	int* timeCount = (int*) context;
  8003f4:	e0bfff17 	ldw	r2,-4(fp)
  8003f8:	e0bffe15 	stw	r2,-8(fp)
	(*timeCount)++;
  8003fc:	e0bffe17 	ldw	r2,-8(fp)
  800400:	10800017 	ldw	r2,0(r2)
  800404:	10c00044 	addi	r3,r2,1
  800408:	e0bffe17 	ldw	r2,-8(fp)
  80040c:	10c00015 	stw	r3,0(r2)
	return 1; // next time out is 1ms
  800410:	00800044 	movi	r2,1
}
  800414:	e037883a 	mov	sp,fp
  800418:	df000017 	ldw	fp,0(sp)
  80041c:	dec00104 	addi	sp,sp,4
  800420:	f800283a 	ret

00800424 <vsLEDISR>:

alt_u32 vsLEDISR(void* context){
  800424:	defffd04 	addi	sp,sp,-12
  800428:	dfc00215 	stw	ra,8(sp)
  80042c:	df000115 	stw	fp,4(sp)
  800430:	df000104 	addi	fp,sp,4
  800434:	e13fff15 	stw	r4,-4(fp)
	setGreenLED(4, 0);
  800438:	000b883a 	mov	r5,zero
  80043c:	01000104 	movi	r4,4
  800440:	08003180 	call	800318 <setGreenLED>

	return 0;
  800444:	0005883a 	mov	r2,zero
}
  800448:	e037883a 	mov	sp,fp
  80044c:	dfc00117 	ldw	ra,4(sp)
  800450:	df000017 	ldw	fp,0(sp)
  800454:	dec00204 	addi	sp,sp,8
  800458:	f800283a 	ret

0080045c <asLEDISR>:

alt_u32 asLEDISR(void* context){
  80045c:	defffd04 	addi	sp,sp,-12
  800460:	dfc00215 	stw	ra,8(sp)
  800464:	df000115 	stw	fp,4(sp)
  800468:	df000104 	addi	fp,sp,4
  80046c:	e13fff15 	stw	r4,-4(fp)
	setGreenLED(5, 0);
  800470:	000b883a 	mov	r5,zero
  800474:	01000144 	movi	r4,5
  800478:	08003180 	call	800318 <setGreenLED>

	return 0;
  80047c:	0005883a 	mov	r2,zero
}
  800480:	e037883a 	mov	sp,fp
  800484:	dfc00117 	ldw	ra,4(sp)
  800488:	df000017 	ldw	fp,0(sp)
  80048c:	dec00204 	addi	sp,sp,8
  800490:	f800283a 	ret

00800494 <apLEDISR>:

alt_u32 apLEDISR(void* context){
  800494:	defffd04 	addi	sp,sp,-12
  800498:	dfc00215 	stw	ra,8(sp)
  80049c:	df000115 	stw	fp,4(sp)
  8004a0:	df000104 	addi	fp,sp,4
  8004a4:	e13fff15 	stw	r4,-4(fp)
	setGreenLED(1, 0);
  8004a8:	000b883a 	mov	r5,zero
  8004ac:	01000044 	movi	r4,1
  8004b0:	08003180 	call	800318 <setGreenLED>

	return 0;
  8004b4:	0005883a 	mov	r2,zero
}
  8004b8:	e037883a 	mov	sp,fp
  8004bc:	dfc00117 	ldw	ra,4(sp)
  8004c0:	df000017 	ldw	fp,0(sp)
  8004c4:	dec00204 	addi	sp,sp,8
  8004c8:	f800283a 	ret

008004cc <vpLEDISR>:

alt_u32 vpLEDISR(void* context){
  8004cc:	defffd04 	addi	sp,sp,-12
  8004d0:	dfc00215 	stw	ra,8(sp)
  8004d4:	df000115 	stw	fp,4(sp)
  8004d8:	df000104 	addi	fp,sp,4
  8004dc:	e13fff15 	stw	r4,-4(fp)
	setGreenLED(0, 0);
  8004e0:	000b883a 	mov	r5,zero
  8004e4:	0009883a 	mov	r4,zero
  8004e8:	08003180 	call	800318 <setGreenLED>

	return 0;
  8004ec:	0005883a 	mov	r2,zero
}
  8004f0:	e037883a 	mov	sp,fp
  8004f4:	dfc00117 	ldw	ra,4(sp)
  8004f8:	df000017 	ldw	fp,0(sp)
  8004fc:	dec00204 	addi	sp,sp,8
  800500:	f800283a 	ret

00800504 <setup_interrupt>:




void setup_interrupt(int*val){//buttons for Mode 1
  800504:	defffc04 	addi	sp,sp,-16
  800508:	dfc00315 	stw	ra,12(sp)
  80050c:	df000215 	stw	fp,8(sp)
  800510:	df000204 	addi	fp,sp,8
  800514:	e13fff15 	stw	r4,-4(fp)
	void *context_to_be_passed = (void*) val;
  800518:	e0bfff17 	ldw	r2,-4(fp)
  80051c:	e0bffe15 	stw	r2,-8(fp)
	//clear edge capture register
	IOWR_ALTERA_AVALON_PIO_EDGE_CAP(KEYS_BASE,0);
  800520:	0007883a 	mov	r3,zero
  800524:	00804074 	movhi	r2,257
  800528:	10842b04 	addi	r2,r2,4268
  80052c:	10c00035 	stwio	r3,0(r2)
	// enable interrupts for left and right buttons i.e. button 2 and button 0
	IOWR_ALTERA_AVALON_PIO_IRQ_MASK(KEYS_BASE, 0b00111111);// parameter ands value with mask so 7 = 111 which means key2-0 enabled.
  800530:	00c00fc4 	movi	r3,63
  800534:	00804074 	movhi	r2,257
  800538:	10842a04 	addi	r2,r2,4264
  80053c:	10c00035 	stwio	r3,0(r2)
	// register the ISR
	alt_irq_register(KEYS_IRQ,context_to_be_passed,button_interrupt_function);
  800540:	01802034 	movhi	r6,128
  800544:	3180a404 	addi	r6,r6,656
  800548:	e17ffe17 	ldw	r5,-8(fp)
  80054c:	01000104 	movi	r4,4
  800550:	080b2e80 	call	80b2e8 <alt_irq_register>
}
  800554:	0001883a 	nop
  800558:	e037883a 	mov	sp,fp
  80055c:	dfc00117 	ldw	ra,4(sp)
  800560:	df000017 	ldw	fp,0(sp)
  800564:	dec00204 	addi	sp,sp,8
  800568:	f800283a 	ret

0080056c <mode_1>:
//
//
//}

//Aron helped again :)
void mode_1(unsigned int uiButtonsValue, TickData* data, Ticks* tickStruct, void* timerContext){
  80056c:	defffa04 	addi	sp,sp,-24
  800570:	dfc00515 	stw	ra,20(sp)
  800574:	df000415 	stw	fp,16(sp)
  800578:	df000404 	addi	fp,sp,16
  80057c:	e13ffc15 	stw	r4,-16(fp)
  800580:	e17ffd15 	stw	r5,-12(fp)
  800584:	e1bffe15 	stw	r6,-8(fp)
  800588:	e1ffff15 	stw	r7,-4(fp)
	setup_interrupt(&uiButtonsValue);
  80058c:	e13ffc04 	addi	r4,fp,-16
  800590:	08005040 	call	800504 <setup_interrupt>
	if(buttonAS == 1){ // AS = KEY1
  800594:	d0a72817 	ldw	r2,-25440(gp)
  800598:	10800058 	cmpnei	r2,r2,1
  80059c:	1000191e 	bne	r2,zero,800604 <mode_1+0x98>

		 //use -> instead of . as it changes directly and not create a new instance?
		data->AS = 1;
  8005a0:	e0bffd17 	ldw	r2,-12(fp)
  8005a4:	00c00044 	movi	r3,1
  8005a8:	10c00605 	stb	r3,24(r2)
		buttonAS = 0; //global parameter doesn't need assignment.
  8005ac:	d0272815 	stw	zero,-25440(gp)
		printf("AS set\n");
  8005b0:	01002074 	movhi	r4,129
  8005b4:	213c8e04 	addi	r4,r4,-3528
  8005b8:	0808b400 	call	808b40 <puts>

			if(!getGreenLED(5)) {
  8005bc:	01000144 	movi	r4,5
  8005c0:	08003a40 	call	8003a4 <getGreenLED>
  8005c4:	10803fcc 	andi	r2,r2,255
  8005c8:	1080201c 	xori	r2,r2,128
  8005cc:	10bfe004 	addi	r2,r2,-128
  8005d0:	1000271e 	bne	r2,zero,800670 <mode_1+0x104>
				setGreenLED(5, 1); // turn on LED 5 for AS
  8005d4:	01400044 	movi	r5,1
  8005d8:	01000144 	movi	r4,5
  8005dc:	08003180 	call	800318 <setGreenLED>
				alt_alarm_start(&tickStruct->ticker_ASLED, 200, asLEDISR, timerContext);
  8005e0:	e0bffe17 	ldw	r2,-8(fp)
  8005e4:	10800c04 	addi	r2,r2,48
  8005e8:	e1ffff17 	ldw	r7,-4(fp)
  8005ec:	01802034 	movhi	r6,128
  8005f0:	31811704 	addi	r6,r6,1116
  8005f4:	01403204 	movi	r5,200
  8005f8:	1009883a 	mov	r4,r2
  8005fc:	080af980 	call	80af98 <alt_alarm_start>
  800600:	00001b06 	br	800670 <mode_1+0x104>
			}
		}

	else if (buttonVS ==1){// VS = KEY0
  800604:	d0a72617 	ldw	r2,-25448(gp)
  800608:	10800058 	cmpnei	r2,r2,1
  80060c:	1000181e 	bne	r2,zero,800670 <mode_1+0x104>
		data->VS = 1;
  800610:	e0bffd17 	ldw	r2,-12(fp)
  800614:	00c00044 	movi	r3,1
  800618:	10c00645 	stb	r3,25(r2)
		buttonVS =0;
  80061c:	d0272615 	stw	zero,-25448(gp)
		printf("VS set\n");
  800620:	01002074 	movhi	r4,129
  800624:	213c9004 	addi	r4,r4,-3520
  800628:	0808b400 	call	808b40 <puts>
		if(!getGreenLED(4)) {
  80062c:	01000104 	movi	r4,4
  800630:	08003a40 	call	8003a4 <getGreenLED>
  800634:	10803fcc 	andi	r2,r2,255
  800638:	1080201c 	xori	r2,r2,128
  80063c:	10bfe004 	addi	r2,r2,-128
  800640:	10000b1e 	bne	r2,zero,800670 <mode_1+0x104>
			setGreenLED(4, 1); // turn on LED 4 for VS
  800644:	01400044 	movi	r5,1
  800648:	01000104 	movi	r4,4
  80064c:	08003180 	call	800318 <setGreenLED>
			alt_alarm_start(&tickStruct->ticker_VSLED, 200, vsLEDISR, timerContext);
  800650:	e0bffe17 	ldw	r2,-8(fp)
  800654:	10800604 	addi	r2,r2,24
  800658:	e1ffff17 	ldw	r7,-4(fp)
  80065c:	01802034 	movhi	r6,128
  800660:	31810904 	addi	r6,r6,1060
  800664:	01403204 	movi	r5,200
  800668:	1009883a 	mov	r4,r2
  80066c:	080af980 	call	80af98 <alt_alarm_start>
		}
	}


	if(data->AP)//remove == coz checking chara gainst number variable.
  800670:	e0bffd17 	ldw	r2,-12(fp)
  800674:	10801303 	ldbu	r2,76(r2)
  800678:	10803fcc 	andi	r2,r2,255
  80067c:	1080201c 	xori	r2,r2,128
  800680:	10bfe004 	addi	r2,r2,-128
  800684:	10001526 	beq	r2,zero,8006dc <mode_1+0x170>
	{	printf("AP is paced\n");
  800688:	01002074 	movhi	r4,129
  80068c:	213c9204 	addi	r4,r4,-3512
  800690:	0808b400 	call	808b40 <puts>
		if(!getGreenLED(1)) {
  800694:	01000044 	movi	r4,1
  800698:	08003a40 	call	8003a4 <getGreenLED>
  80069c:	10803fcc 	andi	r2,r2,255
  8006a0:	1080201c 	xori	r2,r2,128
  8006a4:	10bfe004 	addi	r2,r2,-128
  8006a8:	1000261e 	bne	r2,zero,800744 <mode_1+0x1d8>
			setGreenLED(1, 1); // turn on LED 1 for AP
  8006ac:	01400044 	movi	r5,1
  8006b0:	01000044 	movi	r4,1
  8006b4:	08003180 	call	800318 <setGreenLED>
			alt_alarm_start(&tickStruct->ticker_APLED, 200, apLEDISR, timerContext);
  8006b8:	e0bffe17 	ldw	r2,-8(fp)
  8006bc:	10801204 	addi	r2,r2,72
  8006c0:	e1ffff17 	ldw	r7,-4(fp)
  8006c4:	01802034 	movhi	r6,128
  8006c8:	31812504 	addi	r6,r6,1172
  8006cc:	01403204 	movi	r5,200
  8006d0:	1009883a 	mov	r4,r2
  8006d4:	080af980 	call	80af98 <alt_alarm_start>
			setGreenLED(0, 1); // turn on LED 0 for VS

			alt_alarm_start(&tickStruct->ticker_VPLED, 200, vpLEDISR, timerContext);
		}
	}
}
  8006d8:	00001a06 	br	800744 <mode_1+0x1d8>
			alt_alarm_start(&tickStruct->ticker_APLED, 200, apLEDISR, timerContext);
		}
	}


	else if(data->VP){
  8006dc:	e0bffd17 	ldw	r2,-12(fp)
  8006e0:	10801343 	ldbu	r2,77(r2)
  8006e4:	10803fcc 	andi	r2,r2,255
  8006e8:	1080201c 	xori	r2,r2,128
  8006ec:	10bfe004 	addi	r2,r2,-128
  8006f0:	10001426 	beq	r2,zero,800744 <mode_1+0x1d8>
		printf("VP is paced\n");
  8006f4:	01002074 	movhi	r4,129
  8006f8:	213c9504 	addi	r4,r4,-3500
  8006fc:	0808b400 	call	808b40 <puts>
		if(!getGreenLED(0)) {
  800700:	0009883a 	mov	r4,zero
  800704:	08003a40 	call	8003a4 <getGreenLED>
  800708:	10803fcc 	andi	r2,r2,255
  80070c:	1080201c 	xori	r2,r2,128
  800710:	10bfe004 	addi	r2,r2,-128
  800714:	10000b1e 	bne	r2,zero,800744 <mode_1+0x1d8>
			setGreenLED(0, 1); // turn on LED 0 for VS
  800718:	01400044 	movi	r5,1
  80071c:	0009883a 	mov	r4,zero
  800720:	08003180 	call	800318 <setGreenLED>

			alt_alarm_start(&tickStruct->ticker_VPLED, 200, vpLEDISR, timerContext);
  800724:	e0bffe17 	ldw	r2,-8(fp)
  800728:	10801804 	addi	r2,r2,96
  80072c:	e1ffff17 	ldw	r7,-4(fp)
  800730:	01802034 	movhi	r6,128
  800734:	31813304 	addi	r6,r6,1228
  800738:	01403204 	movi	r5,200
  80073c:	1009883a 	mov	r4,r2
  800740:	080af980 	call	80af98 <alt_alarm_start>
		}
	}
}
  800744:	0001883a 	nop
  800748:	e037883a 	mov	sp,fp
  80074c:	dfc00117 	ldw	ra,4(sp)
  800750:	df000017 	ldw	fp,0(sp)
  800754:	dec00204 	addi	sp,sp,8
  800758:	f800283a 	ret

0080075c <mode_2>:

void mode_2(TickData* data){
  80075c:	defffc04 	addi	sp,sp,-16
  800760:	dfc00315 	stw	ra,12(sp)
  800764:	df000215 	stw	fp,8(sp)
  800768:	df000204 	addi	fp,sp,8
  80076c:	e13fff15 	stw	r4,-4(fp)
	///////Uart Code//////
	IOWR_ALTERA_AVALON_UART_CONTROL(UART_BASE,0);
  800770:	0007883a 	mov	r3,zero
  800774:	00804074 	movhi	r2,257
  800778:	10841304 	addi	r2,r2,4172
  80077c:	10c00035 	stwio	r3,0(r2)


	if(IORD_ALTERA_AVALON_UART_STATUS(UART_BASE)& ALTERA_AVALON_UART_STATUS_RRDY_MSK){
  800780:	00804074 	movhi	r2,257
  800784:	10841204 	addi	r2,r2,4168
  800788:	10800037 	ldwio	r2,0(r2)
  80078c:	1080200c 	andi	r2,r2,128
  800790:	10002026 	beq	r2,zero,800814 <mode_2+0xb8>
		char input= IORD_ALTERA_AVALON_UART_RXDATA(UART_BASE);// read input data from UART
  800794:	00804074 	movhi	r2,257
  800798:	10841004 	addi	r2,r2,4160
  80079c:	10800037 	ldwio	r2,0(r2)
  8007a0:	e0bffe05 	stb	r2,-8(fp)
		IOWR_ALTERA_AVALON_UART_CONTROL(UART_BASE,(1<<7));
  8007a4:	00c02004 	movi	r3,128
  8007a8:	00804074 	movhi	r2,257
  8007ac:	10841304 	addi	r2,r2,4172
  8007b0:	10c00035 	stwio	r3,0(r2)


		if((input=='A')||(input=='a'))
  8007b4:	e0bffe07 	ldb	r2,-8(fp)
  8007b8:	10801060 	cmpeqi	r2,r2,65
  8007bc:	1000031e 	bne	r2,zero,8007cc <mode_2+0x70>
  8007c0:	e0bffe07 	ldb	r2,-8(fp)
  8007c4:	10801858 	cmpnei	r2,r2,97
  8007c8:	1000061e 	bne	r2,zero,8007e4 <mode_2+0x88>
		{
			printf("AS is set\n");
  8007cc:	01002074 	movhi	r4,129
  8007d0:	213c9804 	addi	r4,r4,-3488
  8007d4:	0808b400 	call	808b40 <puts>
			data->AS = 1;
  8007d8:	e0bfff17 	ldw	r2,-4(fp)
  8007dc:	00c00044 	movi	r3,1
  8007e0:	10c00605 	stb	r3,24(r2)
		}


		if((input=='V')||(input=='v'))
  8007e4:	e0bffe07 	ldb	r2,-8(fp)
  8007e8:	108015a0 	cmpeqi	r2,r2,86
  8007ec:	1000031e 	bne	r2,zero,8007fc <mode_2+0xa0>
  8007f0:	e0bffe07 	ldb	r2,-8(fp)
  8007f4:	10801d98 	cmpnei	r2,r2,118
  8007f8:	1000061e 	bne	r2,zero,800814 <mode_2+0xb8>
		{
			printf("VS is set\n");
  8007fc:	01002074 	movhi	r4,129
  800800:	213c9b04 	addi	r4,r4,-3476
  800804:	0808b400 	call	808b40 <puts>
			data->VS=1;
  800808:	e0bfff17 	ldw	r2,-4(fp)
  80080c:	00c00044 	movi	r3,1
  800810:	10c00645 	stb	r3,25(r2)

		}


	}
	if(data->AP){
  800814:	e0bfff17 	ldw	r2,-4(fp)
  800818:	10801303 	ldbu	r2,76(r2)
  80081c:	10803fcc 	andi	r2,r2,255
  800820:	1080201c 	xori	r2,r2,128
  800824:	10bfe004 	addi	r2,r2,-128
  800828:	10000d26 	beq	r2,zero,800860 <mode_2+0x104>
			printf("AP is paced\n");
  80082c:	01002074 	movhi	r4,129
  800830:	213c9204 	addi	r4,r4,-3512
  800834:	0808b400 	call	808b40 <puts>
			while(!(IORD_ALTERA_AVALON_UART_STATUS(UART_BASE)& ALTERA_AVALON_UART_STATUS_TRDY_MSK)){}
  800838:	0001883a 	nop
  80083c:	00804074 	movhi	r2,257
  800840:	10841204 	addi	r2,r2,4168
  800844:	10800037 	ldwio	r2,0(r2)
  800848:	1080100c 	andi	r2,r2,64
  80084c:	103ffb26 	beq	r2,zero,80083c <__alt_mem_onchip_mem+0xff7f883c>
			IOWR_ALTERA_AVALON_UART_TXDATA(UART_BASE, 'A');
  800850:	00c01044 	movi	r3,65
  800854:	00804074 	movhi	r2,257
  800858:	10841104 	addi	r2,r2,4164
  80085c:	10c00035 	stwio	r3,0(r2)
	}
	if(data->VP){
  800860:	e0bfff17 	ldw	r2,-4(fp)
  800864:	10801343 	ldbu	r2,77(r2)
  800868:	10803fcc 	andi	r2,r2,255
  80086c:	1080201c 	xori	r2,r2,128
  800870:	10bfe004 	addi	r2,r2,-128
  800874:	10000d26 	beq	r2,zero,8008ac <mode_2+0x150>
		printf("VP is paced\n");
  800878:	01002074 	movhi	r4,129
  80087c:	213c9504 	addi	r4,r4,-3500
  800880:	0808b400 	call	808b40 <puts>
		while(!(IORD_ALTERA_AVALON_UART_STATUS(UART_BASE)& ALTERA_AVALON_UART_STATUS_TRDY_MSK)){}
  800884:	0001883a 	nop
  800888:	00804074 	movhi	r2,257
  80088c:	10841204 	addi	r2,r2,4168
  800890:	10800037 	ldwio	r2,0(r2)
  800894:	1080100c 	andi	r2,r2,64
  800898:	103ffb26 	beq	r2,zero,800888 <__alt_mem_onchip_mem+0xff7f8888>
		IOWR_ALTERA_AVALON_UART_TXDATA(UART_BASE, 'V');
  80089c:	00c01584 	movi	r3,86
  8008a0:	00804074 	movhi	r2,257
  8008a4:	10841104 	addi	r2,r2,4164
  8008a8:	10c00035 	stwio	r3,0(r2)

	}

}
  8008ac:	0001883a 	nop
  8008b0:	e037883a 	mov	sp,fp
  8008b4:	dfc00117 	ldw	ra,4(sp)
  8008b8:	df000017 	ldw	fp,0(sp)
  8008bc:	dec00204 	addi	sp,sp,8
  8008c0:	f800283a 	ret

008008c4 <main>:

int main()
{
  8008c4:	deff7e04 	addi	sp,sp,-520
  8008c8:	dfc08115 	stw	ra,516(sp)
  8008cc:	df008015 	stw	fp,512(sp)
  8008d0:	df008004 	addi	fp,sp,512
	TickData data;
	Ticks tickStruct;
	reset(&data);
  8008d4:	e0bf8704 	addi	r2,fp,-484
  8008d8:	1009883a 	mov	r4,r2
  8008dc:	080581c0 	call	80581c <reset>
	tick(&data);
  8008e0:	e0bf8704 	addi	r2,fp,-484
  8008e4:	1009883a 	mov	r4,r2
  8008e8:	0805a140 	call	805a14 <tick>

	unsigned int uiSwitchValue = 0;
  8008ec:	e03f8215 	stw	zero,-504(fp)
	unsigned int uiButtonsValue;


	FILE *lcd;
	printf("Hello from Nios II!\n");
  8008f0:	01002074 	movhi	r4,129
  8008f4:	213c9e04 	addi	r4,r4,-3464
  8008f8:	0808b400 	call	808b40 <puts>
	IOWR_ALTERA_AVALON_PIO_DATA(LEDS_GREEN_BASE, 0);
  8008fc:	0007883a 	mov	r3,zero
  800900:	00804074 	movhi	r2,257
  800904:	10841c04 	addi	r2,r2,4208
  800908:	10c00035 	stwio	r3,0(r2)
	lcd = fopen(LCD_NAME, "w");
  80090c:	01402074 	movhi	r5,129
  800910:	297ca304 	addi	r5,r5,-3444
  800914:	01002074 	movhi	r4,129
  800918:	213ca404 	addi	r4,r4,-3440
  80091c:	0807a3c0 	call	807a3c <fopen>
  800920:	e0bf8315 	stw	r2,-500(fp)

	// set up timer for SCChart
	uint64_t prevTime = 0;
  800924:	e03f8015 	stw	zero,-512(fp)
  800928:	e03f8115 	stw	zero,-508(fp)
	uint64_t systemTime = 0;
  80092c:	e03ffe15 	stw	zero,-8(fp)
  800930:	e03fff15 	stw	zero,-4(fp)
	void* timerContext = (void*) &systemTime;   //from aron github https://github.com/aron-jeremiah/CompSys303-SCCharts-Examples/blob/main/NiosExamples/SCCharts_Timer_Intergration_Example/main.c
  800934:	e0bffe04 	addi	r2,fp,-8
  800938:	e0bf8415 	stw	r2,-496(fp)
	alt_alarm_start(&tickStruct.ticker, 1, timerISR, timerContext);
  80093c:	e0bfe004 	addi	r2,fp,-128
  800940:	e1ff8417 	ldw	r7,-496(fp)
  800944:	01802034 	movhi	r6,128
  800948:	3180f904 	addi	r6,r6,996
  80094c:	01400044 	movi	r5,1
  800950:	1009883a 	mov	r4,r2
  800954:	080af980 	call	80af98 <alt_alarm_start>



	while(1)
	{
		data.deltaT = systemTime - prevTime;
  800958:	e13ffe17 	ldw	r4,-8(fp)
  80095c:	e17fff17 	ldw	r5,-4(fp)
  800960:	e1bf8017 	ldw	r6,-512(fp)
  800964:	e1ff8117 	ldw	r7,-508(fp)
  800968:	2185c83a 	sub	r2,r4,r6
  80096c:	2091803a 	cmpltu	r8,r4,r2
  800970:	29c7c83a 	sub	r3,r5,r7
  800974:	1a09c83a 	sub	r4,r3,r8
  800978:	2007883a 	mov	r3,r4
  80097c:	100b883a 	mov	r5,r2
  800980:	180d883a 	mov	r6,r3
  800984:	2809883a 	mov	r4,r5
  800988:	300b883a 	mov	r5,r6
  80098c:	0805c600 	call	805c60 <__floatundidf>
  800990:	1009883a 	mov	r4,r2
  800994:	180b883a 	mov	r5,r3
  800998:	e13f9b15 	stw	r4,-404(fp)
  80099c:	e17f9c15 	stw	r5,-400(fp)
		prevTime = systemTime;
  8009a0:	e0bffe17 	ldw	r2,-8(fp)
  8009a4:	e0bf8015 	stw	r2,-512(fp)
  8009a8:	e0bfff17 	ldw	r2,-4(fp)
  8009ac:	e0bf8115 	stw	r2,-508(fp)

		//update inputs
		tick(&data);
  8009b0:	e0bf8704 	addi	r2,fp,-484
  8009b4:	1009883a 	mov	r4,r2
  8009b8:	0805a140 	call	805a14 <tick>
		uiButtonsValue = 0;
  8009bc:	e03f8515 	stw	zero,-492(fp)

		uiSwitchValue = IORD_ALTERA_AVALON_PIO_DATA(SWITCHES_BASE);
  8009c0:	00804074 	movhi	r2,257
  8009c4:	10842404 	addi	r2,r2,4240
  8009c8:	10800037 	ldwio	r2,0(r2)
  8009cc:	e0bf8215 	stw	r2,-504(fp)
		IOWR_ALTERA_AVALON_PIO_DATA(LEDS_RED_BASE, uiSwitchValue);
  8009d0:	e0ff8217 	ldw	r3,-504(fp)
  8009d4:	00804074 	movhi	r2,257
  8009d8:	10842004 	addi	r2,r2,4224
  8009dc:	10c00035 	stwio	r3,0(r2)
		int switchValueInteger = (int)(uiSwitchValue);
  8009e0:	e0bf8217 	ldw	r2,-504(fp)
  8009e4:	e0bf8615 	stw	r2,-488(fp)

		data.AS =0;// reset on new tick
  8009e8:	e03f8d05 	stb	zero,-460(fp)
		data.VS = 0; // reset on new tick
  8009ec:	e03f8d45 	stb	zero,-459(fp)


		if (switchValueInteger==1){ //mode 1
  8009f0:	e0bf8617 	ldw	r2,-488(fp)
  8009f4:	10800058 	cmpnei	r2,r2,1
  8009f8:	1000081e 	bne	r2,zero,800a1c <main+0x158>
			// if have time to do: only print mode 1 once
			//fprintf(lcd, "BUTTON VALUE: %d\n", uiButtonsValue);
			//printf("MODE 1\n");
			mode_1(uiButtonsValue,&data,&tickStruct, timerContext);
  8009fc:	e0ffe004 	addi	r3,fp,-128
  800a00:	e0bf8704 	addi	r2,fp,-484
  800a04:	e1ff8417 	ldw	r7,-496(fp)
  800a08:	180d883a 	mov	r6,r3
  800a0c:	100b883a 	mov	r5,r2
  800a10:	e13f8517 	ldw	r4,-492(fp)
  800a14:	080056c0 	call	80056c <mode_1>
  800a18:	003fcf06 	br	800958 <__alt_mem_onchip_mem+0xff7f8958>

		}else if (switchValueInteger==2){//mode2
  800a1c:	e0bf8617 	ldw	r2,-488(fp)
  800a20:	10800098 	cmpnei	r2,r2,2
  800a24:	103fcc1e 	bne	r2,zero,800958 <__alt_mem_onchip_mem+0xff7f8958>
			//printf("mode 2\n");
			mode_2(&data);
  800a28:	e0bf8704 	addi	r2,fp,-484
  800a2c:	1009883a 	mov	r4,r2
  800a30:	080075c0 	call	80075c <mode_2>

		}//switch mode end

	}
  800a34:	003fc806 	br	800958 <__alt_mem_onchip_mem+0xff7f8958>

00800a38 <logic>:
 */

#include "pacecharts.h"
#include "timing.h"

void logic(TickData* d) {
  800a38:	defffa04 	addi	sp,sp,-24
  800a3c:	dfc00515 	stw	ra,20(sp)
  800a40:	df000415 	stw	fp,16(sp)
  800a44:	dc800315 	stw	r18,12(sp)
  800a48:	dc400215 	stw	r17,8(sp)
  800a4c:	dc000115 	stw	r16,4(sp)
  800a50:	df000404 	addi	fp,sp,16
  800a54:	e13ffc15 	stw	r4,-16(fp)
  d->_DDDpacemake2_local_AP_temp = 0;
  800a58:	e0bffc17 	ldw	r2,-16(fp)
  800a5c:	10001a05 	stb	zero,104(r2)
  d->_DDDpacemake2_local_VP_temp = 0;
  800a60:	e0bffc17 	ldw	r2,-16(fp)
  800a64:	10001a45 	stb	zero,105(r2)
  d->_DDDpacemake2_local_real_AS = 0;
  800a68:	e0bffc17 	ldw	r2,-16(fp)
  800a6c:	10001a85 	stb	zero,106(r2)
  d->_DDDpacemake2_local_real_VS = 0;
  800a70:	e0bffc17 	ldw	r2,-16(fp)
  800a74:	10001ac5 	stb	zero,107(r2)
  d->_DDDpacemake2_local__pre_VP_temp = d->_DDDpacemake2_local__reg_VP_temp;
  800a78:	e0bffc17 	ldw	r2,-16(fp)
  800a7c:	10c01b03 	ldbu	r3,108(r2)
  800a80:	e0bffc17 	ldw	r2,-16(fp)
  800a84:	10c01b45 	stb	r3,109(r2)
  d->_g73 = d->_pg91_e2;
  800a88:	e0bffc17 	ldw	r2,-16(fp)
  800a8c:	10c05083 	ldbu	r3,322(r2)
  800a90:	e0bffc17 	ldw	r2,-16(fp)
  800a94:	10c02cc5 	stb	r3,179(r2)
  d->_cg73 = d->VS || d->_DDDpacemake2_local__pre_VP_temp;
  800a98:	e0bffc17 	ldw	r2,-16(fp)
  800a9c:	10800643 	ldbu	r2,25(r2)
  800aa0:	10803fcc 	andi	r2,r2,255
  800aa4:	1080201c 	xori	r2,r2,128
  800aa8:	10bfe004 	addi	r2,r2,-128
  800aac:	1000061e 	bne	r2,zero,800ac8 <logic+0x90>
  800ab0:	e0bffc17 	ldw	r2,-16(fp)
  800ab4:	10801b43 	ldbu	r2,109(r2)
  800ab8:	10803fcc 	andi	r2,r2,255
  800abc:	1080201c 	xori	r2,r2,128
  800ac0:	10bfe004 	addi	r2,r2,-128
  800ac4:	10000226 	beq	r2,zero,800ad0 <logic+0x98>
  800ac8:	00800044 	movi	r2,1
  800acc:	00000106 	br	800ad4 <logic+0x9c>
  800ad0:	0005883a 	mov	r2,zero
  800ad4:	1007883a 	mov	r3,r2
  800ad8:	e0bffc17 	ldw	r2,-16(fp)
  800adc:	10c04505 	stb	r3,276(r2)
  d->_g97 = d->_g73 && !d->_cg73;
  800ae0:	e0bffc17 	ldw	r2,-16(fp)
  800ae4:	10802cc3 	ldbu	r2,179(r2)
  800ae8:	10803fcc 	andi	r2,r2,255
  800aec:	1080201c 	xori	r2,r2,128
  800af0:	10bfe004 	addi	r2,r2,-128
  800af4:	10000826 	beq	r2,zero,800b18 <logic+0xe0>
  800af8:	e0bffc17 	ldw	r2,-16(fp)
  800afc:	10804503 	ldbu	r2,276(r2)
  800b00:	10803fcc 	andi	r2,r2,255
  800b04:	1080201c 	xori	r2,r2,128
  800b08:	10bfe004 	addi	r2,r2,-128
  800b0c:	1000021e 	bne	r2,zero,800b18 <logic+0xe0>
  800b10:	00800044 	movi	r2,1
  800b14:	00000106 	br	800b1c <logic+0xe4>
  800b18:	0005883a 	mov	r2,zero
  800b1c:	1007883a 	mov	r3,r2
  800b20:	e0bffc17 	ldw	r2,-16(fp)
  800b24:	10c03185 	stb	r3,198(r2)
  d->_g98 = d->_g97 && d->AS;
  800b28:	e0bffc17 	ldw	r2,-16(fp)
  800b2c:	10803183 	ldbu	r2,198(r2)
  800b30:	10803fcc 	andi	r2,r2,255
  800b34:	1080201c 	xori	r2,r2,128
  800b38:	10bfe004 	addi	r2,r2,-128
  800b3c:	10000826 	beq	r2,zero,800b60 <logic+0x128>
  800b40:	e0bffc17 	ldw	r2,-16(fp)
  800b44:	10800603 	ldbu	r2,24(r2)
  800b48:	10803fcc 	andi	r2,r2,255
  800b4c:	1080201c 	xori	r2,r2,128
  800b50:	10bfe004 	addi	r2,r2,-128
  800b54:	10000226 	beq	r2,zero,800b60 <logic+0x128>
  800b58:	00800044 	movi	r2,1
  800b5c:	00000106 	br	800b64 <logic+0x12c>
  800b60:	0005883a 	mov	r2,zero
  800b64:	1007883a 	mov	r3,r2
  800b68:	e0bffc17 	ldw	r2,-16(fp)
  800b6c:	10c031c5 	stb	r3,199(r2)
  if (d->_g98) {
  800b70:	e0bffc17 	ldw	r2,-16(fp)
  800b74:	108031c3 	ldbu	r2,199(r2)
  800b78:	10803fcc 	andi	r2,r2,255
  800b7c:	1080201c 	xori	r2,r2,128
  800b80:	10bfe004 	addi	r2,r2,-128
  800b84:	10000626 	beq	r2,zero,800ba0 <logic+0x168>
    d->_DDDpacemake2_local_real_AS |= 1;
  800b88:	e0bffc17 	ldw	r2,-16(fp)
  800b8c:	10801a83 	ldbu	r2,106(r2)
  800b90:	10800054 	ori	r2,r2,1
  800b94:	1007883a 	mov	r3,r2
  800b98:	e0bffc17 	ldw	r2,-16(fp)
  800b9c:	10c01a85 	stb	r3,106(r2)
  }
  d->_DDDpacemake2_local__pre_AP_temp = d->_DDDpacemake2_local__reg_AP_temp;
  800ba0:	e0bffc17 	ldw	r2,-16(fp)
  800ba4:	10c01b83 	ldbu	r3,110(r2)
  800ba8:	e0bffc17 	ldw	r2,-16(fp)
  800bac:	10c01bc5 	stb	r3,111(r2)
  d->_g4 = d->_pg11_e1;
  800bb0:	e0bffc17 	ldw	r2,-16(fp)
  800bb4:	10c050c3 	ldbu	r3,323(r2)
  800bb8:	e0bffc17 	ldw	r2,-16(fp)
  800bbc:	10c01f05 	stb	r3,124(r2)
  d->_cg4 = !d->_DDDpacemake2_local_real_AS && !d->_DDDpacemake2_local__pre_AP_temp;
  800bc0:	e0bffc17 	ldw	r2,-16(fp)
  800bc4:	10801a83 	ldbu	r2,106(r2)
  800bc8:	10803fcc 	andi	r2,r2,255
  800bcc:	1080201c 	xori	r2,r2,128
  800bd0:	10bfe004 	addi	r2,r2,-128
  800bd4:	1000081e 	bne	r2,zero,800bf8 <logic+0x1c0>
  800bd8:	e0bffc17 	ldw	r2,-16(fp)
  800bdc:	10801bc3 	ldbu	r2,111(r2)
  800be0:	10803fcc 	andi	r2,r2,255
  800be4:	1080201c 	xori	r2,r2,128
  800be8:	10bfe004 	addi	r2,r2,-128
  800bec:	1000021e 	bne	r2,zero,800bf8 <logic+0x1c0>
  800bf0:	00800044 	movi	r2,1
  800bf4:	00000106 	br	800bfc <logic+0x1c4>
  800bf8:	0005883a 	mov	r2,zero
  800bfc:	1007883a 	mov	r3,r2
  800c00:	e0bffc17 	ldw	r2,-16(fp)
  800c04:	10c03f45 	stb	r3,253(r2)
  d->_g5 = d->_g4 && d->_cg4;
  800c08:	e0bffc17 	ldw	r2,-16(fp)
  800c0c:	10801f03 	ldbu	r2,124(r2)
  800c10:	10803fcc 	andi	r2,r2,255
  800c14:	1080201c 	xori	r2,r2,128
  800c18:	10bfe004 	addi	r2,r2,-128
  800c1c:	10000826 	beq	r2,zero,800c40 <logic+0x208>
  800c20:	e0bffc17 	ldw	r2,-16(fp)
  800c24:	10803f43 	ldbu	r2,253(r2)
  800c28:	10803fcc 	andi	r2,r2,255
  800c2c:	1080201c 	xori	r2,r2,128
  800c30:	10bfe004 	addi	r2,r2,-128
  800c34:	10000226 	beq	r2,zero,800c40 <logic+0x208>
  800c38:	00800044 	movi	r2,1
  800c3c:	00000106 	br	800c44 <logic+0x20c>
  800c40:	0005883a 	mov	r2,zero
  800c44:	1007883a 	mov	r3,r2
  800c48:	e0bffc17 	ldw	r2,-16(fp)
  800c4c:	10c01f45 	stb	r3,125(r2)
  if (d->_g5) {
  800c50:	e0bffc17 	ldw	r2,-16(fp)
  800c54:	10801f43 	ldbu	r2,125(r2)
  800c58:	10803fcc 	andi	r2,r2,255
  800c5c:	1080201c 	xori	r2,r2,128
  800c60:	10bfe004 	addi	r2,r2,-128
  800c64:	10000226 	beq	r2,zero,800c70 <logic+0x238>
    d->VP = 0;
  800c68:	e0bffc17 	ldw	r2,-16(fp)
  800c6c:	10001345 	stb	zero,77(r2)
  }
  d->_g102 = d->_pg120_e2;
  800c70:	e0bffc17 	ldw	r2,-16(fp)
  800c74:	10c05103 	ldbu	r3,324(r2)
  800c78:	e0bffc17 	ldw	r2,-16(fp)
  800c7c:	10c03205 	stb	r3,200(r2)
  d->_cg102 = d->VS || d->_DDDpacemake2_local__pre_VP_temp;
  800c80:	e0bffc17 	ldw	r2,-16(fp)
  800c84:	10800643 	ldbu	r2,25(r2)
  800c88:	10803fcc 	andi	r2,r2,255
  800c8c:	1080201c 	xori	r2,r2,128
  800c90:	10bfe004 	addi	r2,r2,-128
  800c94:	1000061e 	bne	r2,zero,800cb0 <logic+0x278>
  800c98:	e0bffc17 	ldw	r2,-16(fp)
  800c9c:	10801b43 	ldbu	r2,109(r2)
  800ca0:	10803fcc 	andi	r2,r2,255
  800ca4:	1080201c 	xori	r2,r2,128
  800ca8:	10bfe004 	addi	r2,r2,-128
  800cac:	10000226 	beq	r2,zero,800cb8 <logic+0x280>
  800cb0:	00800044 	movi	r2,1
  800cb4:	00000106 	br	800cbc <logic+0x284>
  800cb8:	0005883a 	mov	r2,zero
  800cbc:	1007883a 	mov	r3,r2
  800cc0:	e0bffc17 	ldw	r2,-16(fp)
  800cc4:	10c04785 	stb	r3,286(r2)
  d->_g103 = d->_g102 && d->_cg102;
  800cc8:	e0bffc17 	ldw	r2,-16(fp)
  800ccc:	10803203 	ldbu	r2,200(r2)
  800cd0:	10803fcc 	andi	r2,r2,255
  800cd4:	1080201c 	xori	r2,r2,128
  800cd8:	10bfe004 	addi	r2,r2,-128
  800cdc:	10000826 	beq	r2,zero,800d00 <logic+0x2c8>
  800ce0:	e0bffc17 	ldw	r2,-16(fp)
  800ce4:	10804783 	ldbu	r2,286(r2)
  800ce8:	10803fcc 	andi	r2,r2,255
  800cec:	1080201c 	xori	r2,r2,128
  800cf0:	10bfe004 	addi	r2,r2,-128
  800cf4:	10000226 	beq	r2,zero,800d00 <logic+0x2c8>
  800cf8:	00800044 	movi	r2,1
  800cfc:	00000106 	br	800d04 <logic+0x2cc>
  800d00:	0005883a 	mov	r2,zero
  800d04:	1007883a 	mov	r3,r2
  800d08:	e0bffc17 	ldw	r2,-16(fp)
  800d0c:	10c03245 	stb	r3,201(r2)
  if (d->_g103) {
  800d10:	e0bffc17 	ldw	r2,-16(fp)
  800d14:	10803243 	ldbu	r2,201(r2)
  800d18:	10803fcc 	andi	r2,r2,255
  800d1c:	1080201c 	xori	r2,r2,128
  800d20:	10bfe004 	addi	r2,r2,-128
  800d24:	10000926 	beq	r2,zero,800d4c <logic+0x314>
    d->_DDDpacemake2_local_real_VS |= 1;
  800d28:	e0bffc17 	ldw	r2,-16(fp)
  800d2c:	10801ac3 	ldbu	r2,107(r2)
  800d30:	10800054 	ori	r2,r2,1
  800d34:	1007883a 	mov	r3,r2
  800d38:	e0bffc17 	ldw	r2,-16(fp)
  800d3c:	10c01ac5 	stb	r3,107(r2)
    d->_DDDpacemake2_local_VRP_state = 1;
  800d40:	e0bffc17 	ldw	r2,-16(fp)
  800d44:	00c00044 	movi	r3,1
  800d48:	10c01905 	stb	r3,100(r2)
  }
  d->_g28 = d->_pg23;
  800d4c:	e0bffc17 	ldw	r2,-16(fp)
  800d50:	10c05143 	ldbu	r3,325(r2)
  800d54:	e0bffc17 	ldw	r2,-16(fp)
  800d58:	10c02405 	stb	r3,144(r2)
  d->_cg28 = d->_DDDpacemake2_local_real_VS;
  800d5c:	e0bffc17 	ldw	r2,-16(fp)
  800d60:	10c01ac3 	ldbu	r3,107(r2)
  800d64:	e0bffc17 	ldw	r2,-16(fp)
  800d68:	10c04145 	stb	r3,261(r2)
  d->_g29 = d->_g28 && d->_cg28;
  800d6c:	e0bffc17 	ldw	r2,-16(fp)
  800d70:	10802403 	ldbu	r2,144(r2)
  800d74:	10803fcc 	andi	r2,r2,255
  800d78:	1080201c 	xori	r2,r2,128
  800d7c:	10bfe004 	addi	r2,r2,-128
  800d80:	10000826 	beq	r2,zero,800da4 <logic+0x36c>
  800d84:	e0bffc17 	ldw	r2,-16(fp)
  800d88:	10804143 	ldbu	r2,261(r2)
  800d8c:	10803fcc 	andi	r2,r2,255
  800d90:	1080201c 	xori	r2,r2,128
  800d94:	10bfe004 	addi	r2,r2,-128
  800d98:	10000226 	beq	r2,zero,800da4 <logic+0x36c>
  800d9c:	00800044 	movi	r2,1
  800da0:	00000106 	br	800da8 <logic+0x370>
  800da4:	0005883a 	mov	r2,zero
  800da8:	1007883a 	mov	r3,r2
  800dac:	e0bffc17 	ldw	r2,-16(fp)
  800db0:	10c02445 	stb	r3,145(r2)
  if (d->_g29) {
  800db4:	e0bffc17 	ldw	r2,-16(fp)
  800db8:	10802443 	ldbu	r2,145(r2)
  800dbc:	10803fcc 	andi	r2,r2,255
  800dc0:	1080201c 	xori	r2,r2,128
  800dc4:	10bfe004 	addi	r2,r2,-128
  800dc8:	10000326 	beq	r2,zero,800dd8 <logic+0x3a0>
    d->_DDDpacemake2_local__Atrig = 1;
  800dcc:	e0bffc17 	ldw	r2,-16(fp)
  800dd0:	00c00044 	movi	r3,1
  800dd4:	10c01c05 	stb	r3,112(r2)
  }
  d->_g153 = d->_pg144_e2;
  800dd8:	e0bffc17 	ldw	r2,-16(fp)
  800ddc:	10c05183 	ldbu	r3,326(r2)
  800de0:	e0bffc17 	ldw	r2,-16(fp)
  800de4:	10c03b45 	stb	r3,237(r2)
  d->_cg153 = d->_DDDpacemake2_local_real_VS || d->_DDDpacemake2_local__pre_VP_temp;
  800de8:	e0bffc17 	ldw	r2,-16(fp)
  800dec:	10801ac3 	ldbu	r2,107(r2)
  800df0:	10803fcc 	andi	r2,r2,255
  800df4:	1080201c 	xori	r2,r2,128
  800df8:	10bfe004 	addi	r2,r2,-128
  800dfc:	1000061e 	bne	r2,zero,800e18 <logic+0x3e0>
  800e00:	e0bffc17 	ldw	r2,-16(fp)
  800e04:	10801b43 	ldbu	r2,109(r2)
  800e08:	10803fcc 	andi	r2,r2,255
  800e0c:	1080201c 	xori	r2,r2,128
  800e10:	10bfe004 	addi	r2,r2,-128
  800e14:	10000226 	beq	r2,zero,800e20 <logic+0x3e8>
  800e18:	00800044 	movi	r2,1
  800e1c:	00000106 	br	800e24 <logic+0x3ec>
  800e20:	0005883a 	mov	r2,zero
  800e24:	1007883a 	mov	r3,r2
  800e28:	e0bffc17 	ldw	r2,-16(fp)
  800e2c:	10c04bc5 	stb	r3,303(r2)
  d->_g154 = d->_g153 && d->_cg153;
  800e30:	e0bffc17 	ldw	r2,-16(fp)
  800e34:	10803b43 	ldbu	r2,237(r2)
  800e38:	10803fcc 	andi	r2,r2,255
  800e3c:	1080201c 	xori	r2,r2,128
  800e40:	10bfe004 	addi	r2,r2,-128
  800e44:	10000826 	beq	r2,zero,800e68 <logic+0x430>
  800e48:	e0bffc17 	ldw	r2,-16(fp)
  800e4c:	10804bc3 	ldbu	r2,303(r2)
  800e50:	10803fcc 	andi	r2,r2,255
  800e54:	1080201c 	xori	r2,r2,128
  800e58:	10bfe004 	addi	r2,r2,-128
  800e5c:	10000226 	beq	r2,zero,800e68 <logic+0x430>
  800e60:	00800044 	movi	r2,1
  800e64:	00000106 	br	800e6c <logic+0x434>
  800e68:	0005883a 	mov	r2,zero
  800e6c:	1007883a 	mov	r3,r2
  800e70:	e0bffc17 	ldw	r2,-16(fp)
  800e74:	10c03b85 	stb	r3,238(r2)
  if (d->_g154) {
  800e78:	e0bffc17 	ldw	r2,-16(fp)
  800e7c:	10803b83 	ldbu	r2,238(r2)
  800e80:	10803fcc 	andi	r2,r2,255
  800e84:	1080201c 	xori	r2,r2,128
  800e88:	10bfe004 	addi	r2,r2,-128
  800e8c:	10000326 	beq	r2,zero,800e9c <logic+0x464>
    d->_DDDpacemake2_local_URI_state = 1;
  800e90:	e0bffc17 	ldw	r2,-16(fp)
  800e94:	00c00044 	movi	r3,1
  800e98:	10c01945 	stb	r3,101(r2)
  }
  d->_g212 = d->_pg168;
  800e9c:	e0bffc17 	ldw	r2,-16(fp)
  800ea0:	10c051c3 	ldbu	r3,327(r2)
  800ea4:	e0bffc17 	ldw	r2,-16(fp)
  800ea8:	10c03e85 	stb	r3,250(r2)
  if (d->_g212) {
  800eac:	e0bffc17 	ldw	r2,-16(fp)
  800eb0:	10803e83 	ldbu	r2,250(r2)
  800eb4:	10803fcc 	andi	r2,r2,255
  800eb8:	1080201c 	xori	r2,r2,128
  800ebc:	10bfe004 	addi	r2,r2,-128
  800ec0:	10001226 	beq	r2,zero,800f0c <logic+0x4d4>
    d->URI_counter += d->deltaT;
  800ec4:	e13ffc17 	ldw	r4,-16(fp)
  800ec8:	20801117 	ldw	r2,68(r4)
  800ecc:	20c01217 	ldw	r3,72(r4)
  800ed0:	e1bffc17 	ldw	r6,-16(fp)
  800ed4:	31001417 	ldw	r4,80(r6)
  800ed8:	31401517 	ldw	r5,84(r6)
  800edc:	200d883a 	mov	r6,r4
  800ee0:	280f883a 	mov	r7,r5
  800ee4:	1009883a 	mov	r4,r2
  800ee8:	180b883a 	mov	r5,r3
  800eec:	0805cd00 	call	805cd0 <__adddf3>
  800ef0:	1009883a 	mov	r4,r2
  800ef4:	180b883a 	mov	r5,r3
  800ef8:	2005883a 	mov	r2,r4
  800efc:	2807883a 	mov	r3,r5
  800f00:	e13ffc17 	ldw	r4,-16(fp)
  800f04:	20801115 	stw	r2,68(r4)
  800f08:	20c01215 	stw	r3,72(r4)
  }
  d->_g166 = d->_pg161;
  800f0c:	e0bffc17 	ldw	r2,-16(fp)
  800f10:	10c05203 	ldbu	r3,328(r2)
  800f14:	e0bffc17 	ldw	r2,-16(fp)
  800f18:	10c03dc5 	stb	r3,247(r2)
  d->_cg166 = d->URI_counter >= d->URI_DEADLINE;
  800f1c:	e0bffc17 	ldw	r2,-16(fp)
  800f20:	14001117 	ldw	r16,68(r2)
  800f24:	14401217 	ldw	r17,72(r2)
  800f28:	e0bffc17 	ldw	r2,-16(fp)
  800f2c:	10800117 	ldw	r2,4(r2)
  800f30:	1009883a 	mov	r4,r2
  800f34:	08077600 	call	807760 <__floatsidf>
  800f38:	1009883a 	mov	r4,r2
  800f3c:	180b883a 	mov	r5,r3
  800f40:	04800044 	movi	r18,1
  800f44:	200d883a 	mov	r6,r4
  800f48:	280f883a 	mov	r7,r5
  800f4c:	8009883a 	mov	r4,r16
  800f50:	880b883a 	mov	r5,r17
  800f54:	080657c0 	call	80657c <__gedf2>
  800f58:	1000010e 	bge	r2,zero,800f60 <logic+0x528>
  800f5c:	0025883a 	mov	r18,zero
  800f60:	9007883a 	mov	r3,r18
  800f64:	e0bffc17 	ldw	r2,-16(fp)
  800f68:	10c04cc5 	stb	r3,307(r2)
  d->_g167 = d->_g166 && d->_cg166;
  800f6c:	e0bffc17 	ldw	r2,-16(fp)
  800f70:	10803dc3 	ldbu	r2,247(r2)
  800f74:	10803fcc 	andi	r2,r2,255
  800f78:	1080201c 	xori	r2,r2,128
  800f7c:	10bfe004 	addi	r2,r2,-128
  800f80:	10000826 	beq	r2,zero,800fa4 <logic+0x56c>
  800f84:	e0bffc17 	ldw	r2,-16(fp)
  800f88:	10804cc3 	ldbu	r2,307(r2)
  800f8c:	10803fcc 	andi	r2,r2,255
  800f90:	1080201c 	xori	r2,r2,128
  800f94:	10bfe004 	addi	r2,r2,-128
  800f98:	10000226 	beq	r2,zero,800fa4 <logic+0x56c>
  800f9c:	00800044 	movi	r2,1
  800fa0:	00000106 	br	800fa8 <logic+0x570>
  800fa4:	0005883a 	mov	r2,zero
  800fa8:	1007883a 	mov	r3,r2
  800fac:	e0bffc17 	ldw	r2,-16(fp)
  800fb0:	10c03e05 	stb	r3,248(r2)
  if (d->_g167) {
  800fb4:	e0bffc17 	ldw	r2,-16(fp)
  800fb8:	10803e03 	ldbu	r2,248(r2)
  800fbc:	10803fcc 	andi	r2,r2,255
  800fc0:	1080201c 	xori	r2,r2,128
  800fc4:	10bfe004 	addi	r2,r2,-128
  800fc8:	10000326 	beq	r2,zero,800fd8 <logic+0x5a0>
    d->_DDDpacemake2_local__Atrig11 = 1;
  800fcc:	e0bffc17 	ldw	r2,-16(fp)
  800fd0:	00c00044 	movi	r3,1
  800fd4:	10c01ec5 	stb	r3,123(r2)
  }
  if (d->_g154) {
  800fd8:	e0bffc17 	ldw	r2,-16(fp)
  800fdc:	10803b83 	ldbu	r2,238(r2)
  800fe0:	10803fcc 	andi	r2,r2,255
  800fe4:	1080201c 	xori	r2,r2,128
  800fe8:	10bfe004 	addi	r2,r2,-128
  800fec:	10000526 	beq	r2,zero,801004 <logic+0x5cc>
    d->URI_counter = 0;
  800ff0:	e0bffc17 	ldw	r2,-16(fp)
  800ff4:	10001115 	stw	zero,68(r2)
  800ff8:	10001215 	stw	zero,72(r2)
    d->_DDDpacemake2_local__Atrig11 = 0;
  800ffc:	e0bffc17 	ldw	r2,-16(fp)
  801000:	10001ec5 	stb	zero,123(r2)
  }
  d->_g160 = d->_pg159;
  801004:	e0bffc17 	ldw	r2,-16(fp)
  801008:	10c05243 	ldbu	r3,329(r2)
  80100c:	e0bffc17 	ldw	r2,-16(fp)
  801010:	10c03cc5 	stb	r3,243(r2)
  d->_g163 = d->_pg162;
  801014:	e0bffc17 	ldw	r2,-16(fp)
  801018:	10c05283 	ldbu	r3,330(r2)
  80101c:	e0bffc17 	ldw	r2,-16(fp)
  801020:	10c03d85 	stb	r3,246(r2)
  d->_g163 = d->_g154 || d->_g160 || d->_g163;
  801024:	e0bffc17 	ldw	r2,-16(fp)
  801028:	10803b83 	ldbu	r2,238(r2)
  80102c:	10803fcc 	andi	r2,r2,255
  801030:	1080201c 	xori	r2,r2,128
  801034:	10bfe004 	addi	r2,r2,-128
  801038:	10000c1e 	bne	r2,zero,80106c <logic+0x634>
  80103c:	e0bffc17 	ldw	r2,-16(fp)
  801040:	10803cc3 	ldbu	r2,243(r2)
  801044:	10803fcc 	andi	r2,r2,255
  801048:	1080201c 	xori	r2,r2,128
  80104c:	10bfe004 	addi	r2,r2,-128
  801050:	1000061e 	bne	r2,zero,80106c <logic+0x634>
  801054:	e0bffc17 	ldw	r2,-16(fp)
  801058:	10803d83 	ldbu	r2,246(r2)
  80105c:	10803fcc 	andi	r2,r2,255
  801060:	1080201c 	xori	r2,r2,128
  801064:	10bfe004 	addi	r2,r2,-128
  801068:	10000226 	beq	r2,zero,801074 <logic+0x63c>
  80106c:	00800044 	movi	r2,1
  801070:	00000106 	br	801078 <logic+0x640>
  801074:	0005883a 	mov	r2,zero
  801078:	1007883a 	mov	r3,r2
  80107c:	e0bffc17 	ldw	r2,-16(fp)
  801080:	10c03d85 	stb	r3,246(r2)
  d->_cg156 = d->URI_counter < d->URI_DEADLINE;
  801084:	e0bffc17 	ldw	r2,-16(fp)
  801088:	14001117 	ldw	r16,68(r2)
  80108c:	14401217 	ldw	r17,72(r2)
  801090:	e0bffc17 	ldw	r2,-16(fp)
  801094:	10800117 	ldw	r2,4(r2)
  801098:	1009883a 	mov	r4,r2
  80109c:	08077600 	call	807760 <__floatsidf>
  8010a0:	1009883a 	mov	r4,r2
  8010a4:	180b883a 	mov	r5,r3
  8010a8:	04800044 	movi	r18,1
  8010ac:	200d883a 	mov	r6,r4
  8010b0:	280f883a 	mov	r7,r5
  8010b4:	8009883a 	mov	r4,r16
  8010b8:	880b883a 	mov	r5,r17
  8010bc:	08066580 	call	806658 <__ledf2>
  8010c0:	10000116 	blt	r2,zero,8010c8 <logic+0x690>
  8010c4:	0025883a 	mov	r18,zero
  8010c8:	9007883a 	mov	r3,r18
  8010cc:	e0bffc17 	ldw	r2,-16(fp)
  8010d0:	10c04c05 	stb	r3,304(r2)
  d->_g160 = d->_g163 && !d->_cg156;
  8010d4:	e0bffc17 	ldw	r2,-16(fp)
  8010d8:	10803d83 	ldbu	r2,246(r2)
  8010dc:	10803fcc 	andi	r2,r2,255
  8010e0:	1080201c 	xori	r2,r2,128
  8010e4:	10bfe004 	addi	r2,r2,-128
  8010e8:	10000826 	beq	r2,zero,80110c <logic+0x6d4>
  8010ec:	e0bffc17 	ldw	r2,-16(fp)
  8010f0:	10804c03 	ldbu	r2,304(r2)
  8010f4:	10803fcc 	andi	r2,r2,255
  8010f8:	1080201c 	xori	r2,r2,128
  8010fc:	10bfe004 	addi	r2,r2,-128
  801100:	1000021e 	bne	r2,zero,80110c <logic+0x6d4>
  801104:	00800044 	movi	r2,1
  801108:	00000106 	br	801110 <logic+0x6d8>
  80110c:	0005883a 	mov	r2,zero
  801110:	1007883a 	mov	r3,r2
  801114:	e0bffc17 	ldw	r2,-16(fp)
  801118:	10c03cc5 	stb	r3,243(r2)
  d->_cg161 = d->_DDDpacemake2_local__Atrig11;
  80111c:	e0bffc17 	ldw	r2,-16(fp)
  801120:	10c01ec3 	ldbu	r3,123(r2)
  801124:	e0bffc17 	ldw	r2,-16(fp)
  801128:	10c04c85 	stb	r3,306(r2)
  d->_g162 = d->_g160 && !d->_cg161;
  80112c:	e0bffc17 	ldw	r2,-16(fp)
  801130:	10803cc3 	ldbu	r2,243(r2)
  801134:	10803fcc 	andi	r2,r2,255
  801138:	1080201c 	xori	r2,r2,128
  80113c:	10bfe004 	addi	r2,r2,-128
  801140:	10000826 	beq	r2,zero,801164 <logic+0x72c>
  801144:	e0bffc17 	ldw	r2,-16(fp)
  801148:	10804c83 	ldbu	r2,306(r2)
  80114c:	10803fcc 	andi	r2,r2,255
  801150:	1080201c 	xori	r2,r2,128
  801154:	10bfe004 	addi	r2,r2,-128
  801158:	1000021e 	bne	r2,zero,801164 <logic+0x72c>
  80115c:	00800044 	movi	r2,1
  801160:	00000106 	br	801168 <logic+0x730>
  801164:	0005883a 	mov	r2,zero
  801168:	1007883a 	mov	r3,r2
  80116c:	e0bffc17 	ldw	r2,-16(fp)
  801170:	10c03d45 	stb	r3,245(r2)
  d->sleepT = 1000.0;
  801174:	e0fffc17 	ldw	r3,-16(fp)
  801178:	18001615 	stw	zero,88(r3)
  80117c:	009023f4 	movhi	r2,16527
  801180:	10900004 	addi	r2,r2,16384
  801184:	18801715 	stw	r2,92(r3)
  d->_g156 = d->_g163 && d->_cg156;
  801188:	e0bffc17 	ldw	r2,-16(fp)
  80118c:	10803d83 	ldbu	r2,246(r2)
  801190:	10803fcc 	andi	r2,r2,255
  801194:	1080201c 	xori	r2,r2,128
  801198:	10bfe004 	addi	r2,r2,-128
  80119c:	10000826 	beq	r2,zero,8011c0 <logic+0x788>
  8011a0:	e0bffc17 	ldw	r2,-16(fp)
  8011a4:	10804c03 	ldbu	r2,304(r2)
  8011a8:	10803fcc 	andi	r2,r2,255
  8011ac:	1080201c 	xori	r2,r2,128
  8011b0:	10bfe004 	addi	r2,r2,-128
  8011b4:	10000226 	beq	r2,zero,8011c0 <logic+0x788>
  8011b8:	00800044 	movi	r2,1
  8011bc:	00000106 	br	8011c4 <logic+0x78c>
  8011c0:	0005883a 	mov	r2,zero
  8011c4:	1007883a 	mov	r3,r2
  8011c8:	e0bffc17 	ldw	r2,-16(fp)
  8011cc:	10c03bc5 	stb	r3,239(r2)
  if (d->_g156) {
  8011d0:	e0bffc17 	ldw	r2,-16(fp)
  8011d4:	10803bc3 	ldbu	r2,239(r2)
  8011d8:	10803fcc 	andi	r2,r2,255
  8011dc:	1080201c 	xori	r2,r2,128
  8011e0:	10bfe004 	addi	r2,r2,-128
  8011e4:	10003426 	beq	r2,zero,8012b8 <logic+0x880>
    d->sleepT = (d->sleepT < (d->URI_DEADLINE - d->URI_counter)) ? d->sleepT : (d->URI_DEADLINE - d->URI_counter);
  8011e8:	e0bffc17 	ldw	r2,-16(fp)
  8011ec:	14001617 	ldw	r16,88(r2)
  8011f0:	14401717 	ldw	r17,92(r2)
  8011f4:	e0bffc17 	ldw	r2,-16(fp)
  8011f8:	10800117 	ldw	r2,4(r2)
  8011fc:	1009883a 	mov	r4,r2
  801200:	08077600 	call	807760 <__floatsidf>
  801204:	1011883a 	mov	r8,r2
  801208:	1813883a 	mov	r9,r3
  80120c:	e13ffc17 	ldw	r4,-16(fp)
  801210:	20801117 	ldw	r2,68(r4)
  801214:	20c01217 	ldw	r3,72(r4)
  801218:	100d883a 	mov	r6,r2
  80121c:	180f883a 	mov	r7,r3
  801220:	4009883a 	mov	r4,r8
  801224:	480b883a 	mov	r5,r9
  801228:	0806e640 	call	806e64 <__subdf3>
  80122c:	1009883a 	mov	r4,r2
  801230:	180b883a 	mov	r5,r3
  801234:	2005883a 	mov	r2,r4
  801238:	2807883a 	mov	r3,r5
  80123c:	100d883a 	mov	r6,r2
  801240:	180f883a 	mov	r7,r3
  801244:	8009883a 	mov	r4,r16
  801248:	880b883a 	mov	r5,r17
  80124c:	08066580 	call	806658 <__ledf2>
  801250:	1000040e 	bge	r2,zero,801264 <logic+0x82c>
  801254:	e13ffc17 	ldw	r4,-16(fp)
  801258:	20801617 	ldw	r2,88(r4)
  80125c:	20c01717 	ldw	r3,92(r4)
  801260:	00001206 	br	8012ac <logic+0x874>
  801264:	e0bffc17 	ldw	r2,-16(fp)
  801268:	10800117 	ldw	r2,4(r2)
  80126c:	1009883a 	mov	r4,r2
  801270:	08077600 	call	807760 <__floatsidf>
  801274:	1011883a 	mov	r8,r2
  801278:	1813883a 	mov	r9,r3
  80127c:	e13ffc17 	ldw	r4,-16(fp)
  801280:	20801117 	ldw	r2,68(r4)
  801284:	20c01217 	ldw	r3,72(r4)
  801288:	100d883a 	mov	r6,r2
  80128c:	180f883a 	mov	r7,r3
  801290:	4009883a 	mov	r4,r8
  801294:	480b883a 	mov	r5,r9
  801298:	0806e640 	call	806e64 <__subdf3>
  80129c:	1009883a 	mov	r4,r2
  8012a0:	180b883a 	mov	r5,r3
  8012a4:	2005883a 	mov	r2,r4
  8012a8:	2807883a 	mov	r3,r5
  8012ac:	e13ffc17 	ldw	r4,-16(fp)
  8012b0:	20801615 	stw	r2,88(r4)
  8012b4:	20c01715 	stw	r3,92(r4)
  }
  d->_cg157 = d->_DDDpacemake2_local__Atrig11;
  8012b8:	e0bffc17 	ldw	r2,-16(fp)
  8012bc:	10c01ec3 	ldbu	r3,123(r2)
  8012c0:	e0bffc17 	ldw	r2,-16(fp)
  8012c4:	10c04c45 	stb	r3,305(r2)
  d->_g159 = d->_g156 && !d->_cg157;
  8012c8:	e0bffc17 	ldw	r2,-16(fp)
  8012cc:	10803bc3 	ldbu	r2,239(r2)
  8012d0:	10803fcc 	andi	r2,r2,255
  8012d4:	1080201c 	xori	r2,r2,128
  8012d8:	10bfe004 	addi	r2,r2,-128
  8012dc:	10000826 	beq	r2,zero,801300 <logic+0x8c8>
  8012e0:	e0bffc17 	ldw	r2,-16(fp)
  8012e4:	10804c43 	ldbu	r2,305(r2)
  8012e8:	10803fcc 	andi	r2,r2,255
  8012ec:	1080201c 	xori	r2,r2,128
  8012f0:	10bfe004 	addi	r2,r2,-128
  8012f4:	1000021e 	bne	r2,zero,801300 <logic+0x8c8>
  8012f8:	00800044 	movi	r2,1
  8012fc:	00000106 	br	801304 <logic+0x8cc>
  801300:	0005883a 	mov	r2,zero
  801304:	1007883a 	mov	r3,r2
  801308:	e0bffc17 	ldw	r2,-16(fp)
  80130c:	10c03c85 	stb	r3,242(r2)
  d->_g158_e1 = !(d->_g162 || d->_g159);
  801310:	e0bffc17 	ldw	r2,-16(fp)
  801314:	10803d43 	ldbu	r2,245(r2)
  801318:	10803fcc 	andi	r2,r2,255
  80131c:	1080201c 	xori	r2,r2,128
  801320:	10bfe004 	addi	r2,r2,-128
  801324:	1000081e 	bne	r2,zero,801348 <logic+0x910>
  801328:	e0bffc17 	ldw	r2,-16(fp)
  80132c:	10803c83 	ldbu	r2,242(r2)
  801330:	10803fcc 	andi	r2,r2,255
  801334:	1080201c 	xori	r2,r2,128
  801338:	10bfe004 	addi	r2,r2,-128
  80133c:	1000021e 	bne	r2,zero,801348 <logic+0x910>
  801340:	00800044 	movi	r2,1
  801344:	00000106 	br	80134c <logic+0x914>
  801348:	0005883a 	mov	r2,zero
  80134c:	1007883a 	mov	r3,r2
  801350:	e0bffc17 	ldw	r2,-16(fp)
  801354:	10c04fc5 	stb	r3,319(r2)
  d->_g157 = d->_g156 && d->_cg157 || d->_g160 && d->_cg161;
  801358:	e0bffc17 	ldw	r2,-16(fp)
  80135c:	10803bc3 	ldbu	r2,239(r2)
  801360:	10803fcc 	andi	r2,r2,255
  801364:	1080201c 	xori	r2,r2,128
  801368:	10bfe004 	addi	r2,r2,-128
  80136c:	10000626 	beq	r2,zero,801388 <logic+0x950>
  801370:	e0bffc17 	ldw	r2,-16(fp)
  801374:	10804c43 	ldbu	r2,305(r2)
  801378:	10803fcc 	andi	r2,r2,255
  80137c:	1080201c 	xori	r2,r2,128
  801380:	10bfe004 	addi	r2,r2,-128
  801384:	10000c1e 	bne	r2,zero,8013b8 <logic+0x980>
  801388:	e0bffc17 	ldw	r2,-16(fp)
  80138c:	10803cc3 	ldbu	r2,243(r2)
  801390:	10803fcc 	andi	r2,r2,255
  801394:	1080201c 	xori	r2,r2,128
  801398:	10bfe004 	addi	r2,r2,-128
  80139c:	10000826 	beq	r2,zero,8013c0 <logic+0x988>
  8013a0:	e0bffc17 	ldw	r2,-16(fp)
  8013a4:	10804c83 	ldbu	r2,306(r2)
  8013a8:	10803fcc 	andi	r2,r2,255
  8013ac:	1080201c 	xori	r2,r2,128
  8013b0:	10bfe004 	addi	r2,r2,-128
  8013b4:	10000226 	beq	r2,zero,8013c0 <logic+0x988>
  8013b8:	00800044 	movi	r2,1
  8013bc:	00000106 	br	8013c4 <logic+0x98c>
  8013c0:	0005883a 	mov	r2,zero
  8013c4:	1007883a 	mov	r3,r2
  8013c8:	e0bffc17 	ldw	r2,-16(fp)
  8013cc:	10c03c05 	stb	r3,240(r2)
  d->_g161 = d->_g154 || d->_g166 && !d->_cg166;
  8013d0:	e0bffc17 	ldw	r2,-16(fp)
  8013d4:	10803b83 	ldbu	r2,238(r2)
  8013d8:	10803fcc 	andi	r2,r2,255
  8013dc:	1080201c 	xori	r2,r2,128
  8013e0:	10bfe004 	addi	r2,r2,-128
  8013e4:	10000c1e 	bne	r2,zero,801418 <logic+0x9e0>
  8013e8:	e0bffc17 	ldw	r2,-16(fp)
  8013ec:	10803dc3 	ldbu	r2,247(r2)
  8013f0:	10803fcc 	andi	r2,r2,255
  8013f4:	1080201c 	xori	r2,r2,128
  8013f8:	10bfe004 	addi	r2,r2,-128
  8013fc:	10000826 	beq	r2,zero,801420 <logic+0x9e8>
  801400:	e0bffc17 	ldw	r2,-16(fp)
  801404:	10804cc3 	ldbu	r2,307(r2)
  801408:	10803fcc 	andi	r2,r2,255
  80140c:	1080201c 	xori	r2,r2,128
  801410:	10bfe004 	addi	r2,r2,-128
  801414:	1000021e 	bne	r2,zero,801420 <logic+0x9e8>
  801418:	00800044 	movi	r2,1
  80141c:	00000106 	br	801424 <logic+0x9ec>
  801420:	0005883a 	mov	r2,zero
  801424:	1007883a 	mov	r3,r2
  801428:	e0bffc17 	ldw	r2,-16(fp)
  80142c:	10c03d05 	stb	r3,244(r2)
  d->_g154 = !d->_g161;
  801430:	e0bffc17 	ldw	r2,-16(fp)
  801434:	10803d03 	ldbu	r2,244(r2)
  801438:	10803fcc 	andi	r2,r2,255
  80143c:	1080201c 	xori	r2,r2,128
  801440:	10bfe004 	addi	r2,r2,-128
  801444:	1005003a 	cmpeq	r2,r2,zero
  801448:	1007883a 	mov	r3,r2
  80144c:	e0bffc17 	ldw	r2,-16(fp)
  801450:	10c03b85 	stb	r3,238(r2)
  d->_g166 = (d->_g158_e1 || d->_g157) && (d->_g154 || d->_g167) && (d->_g157 || d->_g167);
  801454:	e0bffc17 	ldw	r2,-16(fp)
  801458:	10804fc3 	ldbu	r2,319(r2)
  80145c:	10803fcc 	andi	r2,r2,255
  801460:	1080201c 	xori	r2,r2,128
  801464:	10bfe004 	addi	r2,r2,-128
  801468:	1000061e 	bne	r2,zero,801484 <logic+0xa4c>
  80146c:	e0bffc17 	ldw	r2,-16(fp)
  801470:	10803c03 	ldbu	r2,240(r2)
  801474:	10803fcc 	andi	r2,r2,255
  801478:	1080201c 	xori	r2,r2,128
  80147c:	10bfe004 	addi	r2,r2,-128
  801480:	10001a26 	beq	r2,zero,8014ec <logic+0xab4>
  801484:	e0bffc17 	ldw	r2,-16(fp)
  801488:	10803b83 	ldbu	r2,238(r2)
  80148c:	10803fcc 	andi	r2,r2,255
  801490:	1080201c 	xori	r2,r2,128
  801494:	10bfe004 	addi	r2,r2,-128
  801498:	1000061e 	bne	r2,zero,8014b4 <logic+0xa7c>
  80149c:	e0bffc17 	ldw	r2,-16(fp)
  8014a0:	10803e03 	ldbu	r2,248(r2)
  8014a4:	10803fcc 	andi	r2,r2,255
  8014a8:	1080201c 	xori	r2,r2,128
  8014ac:	10bfe004 	addi	r2,r2,-128
  8014b0:	10000e26 	beq	r2,zero,8014ec <logic+0xab4>
  8014b4:	e0bffc17 	ldw	r2,-16(fp)
  8014b8:	10803c03 	ldbu	r2,240(r2)
  8014bc:	10803fcc 	andi	r2,r2,255
  8014c0:	1080201c 	xori	r2,r2,128
  8014c4:	10bfe004 	addi	r2,r2,-128
  8014c8:	1000061e 	bne	r2,zero,8014e4 <logic+0xaac>
  8014cc:	e0bffc17 	ldw	r2,-16(fp)
  8014d0:	10803e03 	ldbu	r2,248(r2)
  8014d4:	10803fcc 	andi	r2,r2,255
  8014d8:	1080201c 	xori	r2,r2,128
  8014dc:	10bfe004 	addi	r2,r2,-128
  8014e0:	10000226 	beq	r2,zero,8014ec <logic+0xab4>
  8014e4:	00800044 	movi	r2,1
  8014e8:	00000106 	br	8014f0 <logic+0xab8>
  8014ec:	0005883a 	mov	r2,zero
  8014f0:	1007883a 	mov	r3,r2
  8014f4:	e0bffc17 	ldw	r2,-16(fp)
  8014f8:	10c03dc5 	stb	r3,247(r2)
  if (d->_g166) {
  8014fc:	e0bffc17 	ldw	r2,-16(fp)
  801500:	10803dc3 	ldbu	r2,247(r2)
  801504:	10803fcc 	andi	r2,r2,255
  801508:	1080201c 	xori	r2,r2,128
  80150c:	10bfe004 	addi	r2,r2,-128
  801510:	10000226 	beq	r2,zero,80151c <logic+0xae4>
    d->_DDDpacemake2_local_URI_state = 0;
  801514:	e0bffc17 	ldw	r2,-16(fp)
  801518:	10001945 	stb	zero,101(r2)
  }
  d->_g167 = d->_pg134_e1;
  80151c:	e0bffc17 	ldw	r2,-16(fp)
  801520:	10c052c3 	ldbu	r3,331(r2)
  801524:	e0bffc17 	ldw	r2,-16(fp)
  801528:	10c03e05 	stb	r3,248(r2)
  if (d->_g167) {
  80152c:	e0bffc17 	ldw	r2,-16(fp)
  801530:	10803e03 	ldbu	r2,248(r2)
  801534:	10803fcc 	andi	r2,r2,255
  801538:	1080201c 	xori	r2,r2,128
  80153c:	10bfe004 	addi	r2,r2,-128
  801540:	10001226 	beq	r2,zero,80158c <logic+0xb54>
    d->AVI_counter += d->deltaT;
  801544:	e13ffc17 	ldw	r4,-16(fp)
  801548:	20800717 	ldw	r2,28(r4)
  80154c:	20c00817 	ldw	r3,32(r4)
  801550:	e1bffc17 	ldw	r6,-16(fp)
  801554:	31001417 	ldw	r4,80(r6)
  801558:	31401517 	ldw	r5,84(r6)
  80155c:	200d883a 	mov	r6,r4
  801560:	280f883a 	mov	r7,r5
  801564:	1009883a 	mov	r4,r2
  801568:	180b883a 	mov	r5,r3
  80156c:	0805cd00 	call	805cd0 <__adddf3>
  801570:	1009883a 	mov	r4,r2
  801574:	180b883a 	mov	r5,r3
  801578:	2005883a 	mov	r2,r4
  80157c:	2807883a 	mov	r3,r5
  801580:	e13ffc17 	ldw	r4,-16(fp)
  801584:	20800715 	stw	r2,28(r4)
  801588:	20c00815 	stw	r3,32(r4)
  }
  d->_g167_e2 = d->_g28 && !d->_cg28;
  80158c:	e0bffc17 	ldw	r2,-16(fp)
  801590:	10802403 	ldbu	r2,144(r2)
  801594:	10803fcc 	andi	r2,r2,255
  801598:	1080201c 	xori	r2,r2,128
  80159c:	10bfe004 	addi	r2,r2,-128
  8015a0:	10000826 	beq	r2,zero,8015c4 <logic+0xb8c>
  8015a4:	e0bffc17 	ldw	r2,-16(fp)
  8015a8:	10804143 	ldbu	r2,261(r2)
  8015ac:	10803fcc 	andi	r2,r2,255
  8015b0:	1080201c 	xori	r2,r2,128
  8015b4:	10bfe004 	addi	r2,r2,-128
  8015b8:	1000021e 	bne	r2,zero,8015c4 <logic+0xb8c>
  8015bc:	00800044 	movi	r2,1
  8015c0:	00000106 	br	8015c8 <logic+0xb90>
  8015c4:	0005883a 	mov	r2,zero
  8015c8:	1007883a 	mov	r3,r2
  8015cc:	e0bffc17 	ldw	r2,-16(fp)
  8015d0:	10c05005 	stb	r3,320(r2)
  d->_cg31 = d->AVI_counter >= d->AVI_DEADLINE && d->_DDDpacemake2_local_URI_state == 1;
  8015d4:	e0bffc17 	ldw	r2,-16(fp)
  8015d8:	14000717 	ldw	r16,28(r2)
  8015dc:	14400817 	ldw	r17,32(r2)
  8015e0:	e0bffc17 	ldw	r2,-16(fp)
  8015e4:	10800017 	ldw	r2,0(r2)
  8015e8:	1009883a 	mov	r4,r2
  8015ec:	08077600 	call	807760 <__floatsidf>
  8015f0:	1009883a 	mov	r4,r2
  8015f4:	180b883a 	mov	r5,r3
  8015f8:	200d883a 	mov	r6,r4
  8015fc:	280f883a 	mov	r7,r5
  801600:	8009883a 	mov	r4,r16
  801604:	880b883a 	mov	r5,r17
  801608:	080657c0 	call	80657c <__gedf2>
  80160c:	10000916 	blt	r2,zero,801634 <logic+0xbfc>
  801610:	e0bffc17 	ldw	r2,-16(fp)
  801614:	10801943 	ldbu	r2,101(r2)
  801618:	10803fcc 	andi	r2,r2,255
  80161c:	1080201c 	xori	r2,r2,128
  801620:	10bfe004 	addi	r2,r2,-128
  801624:	10800058 	cmpnei	r2,r2,1
  801628:	1000021e 	bne	r2,zero,801634 <logic+0xbfc>
  80162c:	00800044 	movi	r2,1
  801630:	00000106 	br	801638 <logic+0xc00>
  801634:	0005883a 	mov	r2,zero
  801638:	1007883a 	mov	r3,r2
  80163c:	e0bffc17 	ldw	r2,-16(fp)
  801640:	10c04185 	stb	r3,262(r2)
  d->_g158_e1 = d->_g167_e2 && d->_cg31;
  801644:	e0bffc17 	ldw	r2,-16(fp)
  801648:	10805003 	ldbu	r2,320(r2)
  80164c:	10803fcc 	andi	r2,r2,255
  801650:	1080201c 	xori	r2,r2,128
  801654:	10bfe004 	addi	r2,r2,-128
  801658:	10000826 	beq	r2,zero,80167c <logic+0xc44>
  80165c:	e0bffc17 	ldw	r2,-16(fp)
  801660:	10804183 	ldbu	r2,262(r2)
  801664:	10803fcc 	andi	r2,r2,255
  801668:	1080201c 	xori	r2,r2,128
  80166c:	10bfe004 	addi	r2,r2,-128
  801670:	10000226 	beq	r2,zero,80167c <logic+0xc44>
  801674:	00800044 	movi	r2,1
  801678:	00000106 	br	801680 <logic+0xc48>
  80167c:	0005883a 	mov	r2,zero
  801680:	1007883a 	mov	r3,r2
  801684:	e0bffc17 	ldw	r2,-16(fp)
  801688:	10c04fc5 	stb	r3,319(r2)
  if (d->_g158_e1) {
  80168c:	e0bffc17 	ldw	r2,-16(fp)
  801690:	10804fc3 	ldbu	r2,319(r2)
  801694:	10803fcc 	andi	r2,r2,255
  801698:	1080201c 	xori	r2,r2,128
  80169c:	10bfe004 	addi	r2,r2,-128
  8016a0:	10000326 	beq	r2,zero,8016b0 <logic+0xc78>
    d->_DDDpacemake2_local__Atrig1 = 1;
  8016a4:	e0bffc17 	ldw	r2,-16(fp)
  8016a8:	00c00044 	movi	r3,1
  8016ac:	10c01c45 	stb	r3,113(r2)
  }
  d->_g158 = d->_g167_e2 && !d->_cg31;
  8016b0:	e0bffc17 	ldw	r2,-16(fp)
  8016b4:	10805003 	ldbu	r2,320(r2)
  8016b8:	10803fcc 	andi	r2,r2,255
  8016bc:	1080201c 	xori	r2,r2,128
  8016c0:	10bfe004 	addi	r2,r2,-128
  8016c4:	10000826 	beq	r2,zero,8016e8 <logic+0xcb0>
  8016c8:	e0bffc17 	ldw	r2,-16(fp)
  8016cc:	10804183 	ldbu	r2,262(r2)
  8016d0:	10803fcc 	andi	r2,r2,255
  8016d4:	1080201c 	xori	r2,r2,128
  8016d8:	10bfe004 	addi	r2,r2,-128
  8016dc:	1000021e 	bne	r2,zero,8016e8 <logic+0xcb0>
  8016e0:	00800044 	movi	r2,1
  8016e4:	00000106 	br	8016ec <logic+0xcb4>
  8016e8:	0005883a 	mov	r2,zero
  8016ec:	1007883a 	mov	r3,r2
  8016f0:	e0bffc17 	ldw	r2,-16(fp)
  8016f4:	10c03c45 	stb	r3,241(r2)
  d->_cg33 = d->AVI_counter >= d->AVI_DEADLINE && d->_DDDpacemake2_local_URI_state == 0;
  8016f8:	e0bffc17 	ldw	r2,-16(fp)
  8016fc:	14000717 	ldw	r16,28(r2)
  801700:	14400817 	ldw	r17,32(r2)
  801704:	e0bffc17 	ldw	r2,-16(fp)
  801708:	10800017 	ldw	r2,0(r2)
  80170c:	1009883a 	mov	r4,r2
  801710:	08077600 	call	807760 <__floatsidf>
  801714:	1009883a 	mov	r4,r2
  801718:	180b883a 	mov	r5,r3
  80171c:	200d883a 	mov	r6,r4
  801720:	280f883a 	mov	r7,r5
  801724:	8009883a 	mov	r4,r16
  801728:	880b883a 	mov	r5,r17
  80172c:	080657c0 	call	80657c <__gedf2>
  801730:	10000816 	blt	r2,zero,801754 <logic+0xd1c>
  801734:	e0bffc17 	ldw	r2,-16(fp)
  801738:	10801943 	ldbu	r2,101(r2)
  80173c:	10803fcc 	andi	r2,r2,255
  801740:	1080201c 	xori	r2,r2,128
  801744:	10bfe004 	addi	r2,r2,-128
  801748:	1000021e 	bne	r2,zero,801754 <logic+0xd1c>
  80174c:	00800044 	movi	r2,1
  801750:	00000106 	br	801758 <logic+0xd20>
  801754:	0005883a 	mov	r2,zero
  801758:	1007883a 	mov	r3,r2
  80175c:	e0bffc17 	ldw	r2,-16(fp)
  801760:	10c04105 	stb	r3,260(r2)
  d->_g28 = d->_g158 && d->_cg33;
  801764:	e0bffc17 	ldw	r2,-16(fp)
  801768:	10803c43 	ldbu	r2,241(r2)
  80176c:	10803fcc 	andi	r2,r2,255
  801770:	1080201c 	xori	r2,r2,128
  801774:	10bfe004 	addi	r2,r2,-128
  801778:	10000826 	beq	r2,zero,80179c <logic+0xd64>
  80177c:	e0bffc17 	ldw	r2,-16(fp)
  801780:	10804103 	ldbu	r2,260(r2)
  801784:	10803fcc 	andi	r2,r2,255
  801788:	1080201c 	xori	r2,r2,128
  80178c:	10bfe004 	addi	r2,r2,-128
  801790:	10000226 	beq	r2,zero,80179c <logic+0xd64>
  801794:	00800044 	movi	r2,1
  801798:	00000106 	br	8017a0 <logic+0xd68>
  80179c:	0005883a 	mov	r2,zero
  8017a0:	1007883a 	mov	r3,r2
  8017a4:	e0bffc17 	ldw	r2,-16(fp)
  8017a8:	10c02405 	stb	r3,144(r2)
  if (d->_g28) {
  8017ac:	e0bffc17 	ldw	r2,-16(fp)
  8017b0:	10802403 	ldbu	r2,144(r2)
  8017b4:	10803fcc 	andi	r2,r2,255
  8017b8:	1080201c 	xori	r2,r2,128
  8017bc:	10bfe004 	addi	r2,r2,-128
  8017c0:	10000326 	beq	r2,zero,8017d0 <logic+0xd98>
    d->_DDDpacemake2_local__Atrig2 = 1;
  8017c4:	e0bffc17 	ldw	r2,-16(fp)
  8017c8:	00c00044 	movi	r3,1
  8017cc:	10c01c85 	stb	r3,114(r2)
  }
  d->_g31 = d->_g4 && !d->_cg4;
  8017d0:	e0bffc17 	ldw	r2,-16(fp)
  8017d4:	10801f03 	ldbu	r2,124(r2)
  8017d8:	10803fcc 	andi	r2,r2,255
  8017dc:	1080201c 	xori	r2,r2,128
  8017e0:	10bfe004 	addi	r2,r2,-128
  8017e4:	10000826 	beq	r2,zero,801808 <logic+0xdd0>
  8017e8:	e0bffc17 	ldw	r2,-16(fp)
  8017ec:	10803f43 	ldbu	r2,253(r2)
  8017f0:	10803fcc 	andi	r2,r2,255
  8017f4:	1080201c 	xori	r2,r2,128
  8017f8:	10bfe004 	addi	r2,r2,-128
  8017fc:	1000021e 	bne	r2,zero,801808 <logic+0xdd0>
  801800:	00800044 	movi	r2,1
  801804:	00000106 	br	80180c <logic+0xdd4>
  801808:	0005883a 	mov	r2,zero
  80180c:	1007883a 	mov	r3,r2
  801810:	e0bffc17 	ldw	r2,-16(fp)
  801814:	10c024c5 	stb	r3,147(r2)
  d->_cg6 = d->_DDDpacemake2_local_real_AS || d->_DDDpacemake2_local__pre_AP_temp;
  801818:	e0bffc17 	ldw	r2,-16(fp)
  80181c:	10801a83 	ldbu	r2,106(r2)
  801820:	10803fcc 	andi	r2,r2,255
  801824:	1080201c 	xori	r2,r2,128
  801828:	10bfe004 	addi	r2,r2,-128
  80182c:	1000061e 	bne	r2,zero,801848 <logic+0xe10>
  801830:	e0bffc17 	ldw	r2,-16(fp)
  801834:	10801bc3 	ldbu	r2,111(r2)
  801838:	10803fcc 	andi	r2,r2,255
  80183c:	1080201c 	xori	r2,r2,128
  801840:	10bfe004 	addi	r2,r2,-128
  801844:	10000226 	beq	r2,zero,801850 <logic+0xe18>
  801848:	00800044 	movi	r2,1
  80184c:	00000106 	br	801854 <logic+0xe1c>
  801850:	0005883a 	mov	r2,zero
  801854:	1007883a 	mov	r3,r2
  801858:	e0bffc17 	ldw	r2,-16(fp)
  80185c:	10c03f05 	stb	r3,252(r2)
  d->_g4 = d->_g31 && d->_cg6;
  801860:	e0bffc17 	ldw	r2,-16(fp)
  801864:	108024c3 	ldbu	r2,147(r2)
  801868:	10803fcc 	andi	r2,r2,255
  80186c:	1080201c 	xori	r2,r2,128
  801870:	10bfe004 	addi	r2,r2,-128
  801874:	10000826 	beq	r2,zero,801898 <logic+0xe60>
  801878:	e0bffc17 	ldw	r2,-16(fp)
  80187c:	10803f03 	ldbu	r2,252(r2)
  801880:	10803fcc 	andi	r2,r2,255
  801884:	1080201c 	xori	r2,r2,128
  801888:	10bfe004 	addi	r2,r2,-128
  80188c:	10000226 	beq	r2,zero,801898 <logic+0xe60>
  801890:	00800044 	movi	r2,1
  801894:	00000106 	br	80189c <logic+0xe64>
  801898:	0005883a 	mov	r2,zero
  80189c:	1007883a 	mov	r3,r2
  8018a0:	e0bffc17 	ldw	r2,-16(fp)
  8018a4:	10c01f05 	stb	r3,124(r2)
  if (d->_g4) {
  8018a8:	e0bffc17 	ldw	r2,-16(fp)
  8018ac:	10801f03 	ldbu	r2,124(r2)
  8018b0:	10803fcc 	andi	r2,r2,255
  8018b4:	1080201c 	xori	r2,r2,128
  8018b8:	10bfe004 	addi	r2,r2,-128
  8018bc:	10000c26 	beq	r2,zero,8018f0 <logic+0xeb8>
    d->_DDDpacemake2_local_AVI_state = 1;
  8018c0:	e0bffc17 	ldw	r2,-16(fp)
  8018c4:	00c00044 	movi	r3,1
  8018c8:	10c01805 	stb	r3,96(r2)
    d->AVI_counter = 0;
  8018cc:	e0bffc17 	ldw	r2,-16(fp)
  8018d0:	10000715 	stw	zero,28(r2)
  8018d4:	10000815 	stw	zero,32(r2)
    d->_DDDpacemake2_local__Atrig = 0;
  8018d8:	e0bffc17 	ldw	r2,-16(fp)
  8018dc:	10001c05 	stb	zero,112(r2)
    d->_DDDpacemake2_local__Atrig1 = 0;
  8018e0:	e0bffc17 	ldw	r2,-16(fp)
  8018e4:	10001c45 	stb	zero,113(r2)
    d->_DDDpacemake2_local__Atrig2 = 0;
  8018e8:	e0bffc17 	ldw	r2,-16(fp)
  8018ec:	10001c85 	stb	zero,114(r2)
  }
  d->_g13 = d->_pg12;
  8018f0:	e0bffc17 	ldw	r2,-16(fp)
  8018f4:	10c05303 	ldbu	r3,332(r2)
  8018f8:	e0bffc17 	ldw	r2,-16(fp)
  8018fc:	10c02105 	stb	r3,132(r2)
  d->_g16 = d->_pg15;
  801900:	e0bffc17 	ldw	r2,-16(fp)
  801904:	10c05343 	ldbu	r3,333(r2)
  801908:	e0bffc17 	ldw	r2,-16(fp)
  80190c:	10c021c5 	stb	r3,135(r2)
  d->_g16 = d->_g4 || d->_g13 || d->_g16;
  801910:	e0bffc17 	ldw	r2,-16(fp)
  801914:	10801f03 	ldbu	r2,124(r2)
  801918:	10803fcc 	andi	r2,r2,255
  80191c:	1080201c 	xori	r2,r2,128
  801920:	10bfe004 	addi	r2,r2,-128
  801924:	10000c1e 	bne	r2,zero,801958 <logic+0xf20>
  801928:	e0bffc17 	ldw	r2,-16(fp)
  80192c:	10802103 	ldbu	r2,132(r2)
  801930:	10803fcc 	andi	r2,r2,255
  801934:	1080201c 	xori	r2,r2,128
  801938:	10bfe004 	addi	r2,r2,-128
  80193c:	1000061e 	bne	r2,zero,801958 <logic+0xf20>
  801940:	e0bffc17 	ldw	r2,-16(fp)
  801944:	108021c3 	ldbu	r2,135(r2)
  801948:	10803fcc 	andi	r2,r2,255
  80194c:	1080201c 	xori	r2,r2,128
  801950:	10bfe004 	addi	r2,r2,-128
  801954:	10000226 	beq	r2,zero,801960 <logic+0xf28>
  801958:	00800044 	movi	r2,1
  80195c:	00000106 	br	801964 <logic+0xf2c>
  801960:	0005883a 	mov	r2,zero
  801964:	1007883a 	mov	r3,r2
  801968:	e0bffc17 	ldw	r2,-16(fp)
  80196c:	10c021c5 	stb	r3,135(r2)
  d->_cg9 = d->AVI_counter < d->AVI_DEADLINE;
  801970:	e0bffc17 	ldw	r2,-16(fp)
  801974:	14000717 	ldw	r16,28(r2)
  801978:	14400817 	ldw	r17,32(r2)
  80197c:	e0bffc17 	ldw	r2,-16(fp)
  801980:	10800017 	ldw	r2,0(r2)
  801984:	1009883a 	mov	r4,r2
  801988:	08077600 	call	807760 <__floatsidf>
  80198c:	1009883a 	mov	r4,r2
  801990:	180b883a 	mov	r5,r3
  801994:	04800044 	movi	r18,1
  801998:	200d883a 	mov	r6,r4
  80199c:	280f883a 	mov	r7,r5
  8019a0:	8009883a 	mov	r4,r16
  8019a4:	880b883a 	mov	r5,r17
  8019a8:	08066580 	call	806658 <__ledf2>
  8019ac:	10000116 	blt	r2,zero,8019b4 <logic+0xf7c>
  8019b0:	0025883a 	mov	r18,zero
  8019b4:	9007883a 	mov	r3,r18
  8019b8:	e0bffc17 	ldw	r2,-16(fp)
  8019bc:	10c03f85 	stb	r3,254(r2)
  d->_g13 = d->_g16 && !d->_cg9;
  8019c0:	e0bffc17 	ldw	r2,-16(fp)
  8019c4:	108021c3 	ldbu	r2,135(r2)
  8019c8:	10803fcc 	andi	r2,r2,255
  8019cc:	1080201c 	xori	r2,r2,128
  8019d0:	10bfe004 	addi	r2,r2,-128
  8019d4:	10000826 	beq	r2,zero,8019f8 <logic+0xfc0>
  8019d8:	e0bffc17 	ldw	r2,-16(fp)
  8019dc:	10803f83 	ldbu	r2,254(r2)
  8019e0:	10803fcc 	andi	r2,r2,255
  8019e4:	1080201c 	xori	r2,r2,128
  8019e8:	10bfe004 	addi	r2,r2,-128
  8019ec:	1000021e 	bne	r2,zero,8019f8 <logic+0xfc0>
  8019f0:	00800044 	movi	r2,1
  8019f4:	00000106 	br	8019fc <logic+0xfc4>
  8019f8:	0005883a 	mov	r2,zero
  8019fc:	1007883a 	mov	r3,r2
  801a00:	e0bffc17 	ldw	r2,-16(fp)
  801a04:	10c02105 	stb	r3,132(r2)
  d->_cg14 = d->_DDDpacemake2_local__Atrig || d->_DDDpacemake2_local__Atrig1 || d->_DDDpacemake2_local__Atrig2;
  801a08:	e0bffc17 	ldw	r2,-16(fp)
  801a0c:	10801c03 	ldbu	r2,112(r2)
  801a10:	10803fcc 	andi	r2,r2,255
  801a14:	1080201c 	xori	r2,r2,128
  801a18:	10bfe004 	addi	r2,r2,-128
  801a1c:	10000c1e 	bne	r2,zero,801a50 <logic+0x1018>
  801a20:	e0bffc17 	ldw	r2,-16(fp)
  801a24:	10801c43 	ldbu	r2,113(r2)
  801a28:	10803fcc 	andi	r2,r2,255
  801a2c:	1080201c 	xori	r2,r2,128
  801a30:	10bfe004 	addi	r2,r2,-128
  801a34:	1000061e 	bne	r2,zero,801a50 <logic+0x1018>
  801a38:	e0bffc17 	ldw	r2,-16(fp)
  801a3c:	10801c83 	ldbu	r2,114(r2)
  801a40:	10803fcc 	andi	r2,r2,255
  801a44:	1080201c 	xori	r2,r2,128
  801a48:	10bfe004 	addi	r2,r2,-128
  801a4c:	10000226 	beq	r2,zero,801a58 <logic+0x1020>
  801a50:	00800044 	movi	r2,1
  801a54:	00000106 	br	801a5c <logic+0x1024>
  801a58:	0005883a 	mov	r2,zero
  801a5c:	1007883a 	mov	r3,r2
  801a60:	e0bffc17 	ldw	r2,-16(fp)
  801a64:	10c04005 	stb	r3,256(r2)
  d->_g15 = d->_g13 && !d->_cg14;
  801a68:	e0bffc17 	ldw	r2,-16(fp)
  801a6c:	10802103 	ldbu	r2,132(r2)
  801a70:	10803fcc 	andi	r2,r2,255
  801a74:	1080201c 	xori	r2,r2,128
  801a78:	10bfe004 	addi	r2,r2,-128
  801a7c:	10000826 	beq	r2,zero,801aa0 <logic+0x1068>
  801a80:	e0bffc17 	ldw	r2,-16(fp)
  801a84:	10804003 	ldbu	r2,256(r2)
  801a88:	10803fcc 	andi	r2,r2,255
  801a8c:	1080201c 	xori	r2,r2,128
  801a90:	10bfe004 	addi	r2,r2,-128
  801a94:	1000021e 	bne	r2,zero,801aa0 <logic+0x1068>
  801a98:	00800044 	movi	r2,1
  801a9c:	00000106 	br	801aa4 <logic+0x106c>
  801aa0:	0005883a 	mov	r2,zero
  801aa4:	1007883a 	mov	r3,r2
  801aa8:	e0bffc17 	ldw	r2,-16(fp)
  801aac:	10c02185 	stb	r3,134(r2)
  d->_g9 = d->_g16 && d->_cg9;
  801ab0:	e0bffc17 	ldw	r2,-16(fp)
  801ab4:	108021c3 	ldbu	r2,135(r2)
  801ab8:	10803fcc 	andi	r2,r2,255
  801abc:	1080201c 	xori	r2,r2,128
  801ac0:	10bfe004 	addi	r2,r2,-128
  801ac4:	10000826 	beq	r2,zero,801ae8 <logic+0x10b0>
  801ac8:	e0bffc17 	ldw	r2,-16(fp)
  801acc:	10803f83 	ldbu	r2,254(r2)
  801ad0:	10803fcc 	andi	r2,r2,255
  801ad4:	1080201c 	xori	r2,r2,128
  801ad8:	10bfe004 	addi	r2,r2,-128
  801adc:	10000226 	beq	r2,zero,801ae8 <logic+0x10b0>
  801ae0:	00800044 	movi	r2,1
  801ae4:	00000106 	br	801aec <logic+0x10b4>
  801ae8:	0005883a 	mov	r2,zero
  801aec:	1007883a 	mov	r3,r2
  801af0:	e0bffc17 	ldw	r2,-16(fp)
  801af4:	10c02005 	stb	r3,128(r2)
  if (d->_g9) {
  801af8:	e0bffc17 	ldw	r2,-16(fp)
  801afc:	10802003 	ldbu	r2,128(r2)
  801b00:	10803fcc 	andi	r2,r2,255
  801b04:	1080201c 	xori	r2,r2,128
  801b08:	10bfe004 	addi	r2,r2,-128
  801b0c:	10003426 	beq	r2,zero,801be0 <logic+0x11a8>
    d->sleepT = (d->sleepT < (d->AVI_DEADLINE - d->AVI_counter)) ? d->sleepT : (d->AVI_DEADLINE - d->AVI_counter);
  801b10:	e0bffc17 	ldw	r2,-16(fp)
  801b14:	14001617 	ldw	r16,88(r2)
  801b18:	14401717 	ldw	r17,92(r2)
  801b1c:	e0bffc17 	ldw	r2,-16(fp)
  801b20:	10800017 	ldw	r2,0(r2)
  801b24:	1009883a 	mov	r4,r2
  801b28:	08077600 	call	807760 <__floatsidf>
  801b2c:	1011883a 	mov	r8,r2
  801b30:	1813883a 	mov	r9,r3
  801b34:	e13ffc17 	ldw	r4,-16(fp)
  801b38:	20800717 	ldw	r2,28(r4)
  801b3c:	20c00817 	ldw	r3,32(r4)
  801b40:	100d883a 	mov	r6,r2
  801b44:	180f883a 	mov	r7,r3
  801b48:	4009883a 	mov	r4,r8
  801b4c:	480b883a 	mov	r5,r9
  801b50:	0806e640 	call	806e64 <__subdf3>
  801b54:	1009883a 	mov	r4,r2
  801b58:	180b883a 	mov	r5,r3
  801b5c:	2005883a 	mov	r2,r4
  801b60:	2807883a 	mov	r3,r5
  801b64:	100d883a 	mov	r6,r2
  801b68:	180f883a 	mov	r7,r3
  801b6c:	8009883a 	mov	r4,r16
  801b70:	880b883a 	mov	r5,r17
  801b74:	08066580 	call	806658 <__ledf2>
  801b78:	1000040e 	bge	r2,zero,801b8c <logic+0x1154>
  801b7c:	e13ffc17 	ldw	r4,-16(fp)
  801b80:	20801617 	ldw	r2,88(r4)
  801b84:	20c01717 	ldw	r3,92(r4)
  801b88:	00001206 	br	801bd4 <logic+0x119c>
  801b8c:	e0bffc17 	ldw	r2,-16(fp)
  801b90:	10800017 	ldw	r2,0(r2)
  801b94:	1009883a 	mov	r4,r2
  801b98:	08077600 	call	807760 <__floatsidf>
  801b9c:	1011883a 	mov	r8,r2
  801ba0:	1813883a 	mov	r9,r3
  801ba4:	e13ffc17 	ldw	r4,-16(fp)
  801ba8:	20800717 	ldw	r2,28(r4)
  801bac:	20c00817 	ldw	r3,32(r4)
  801bb0:	100d883a 	mov	r6,r2
  801bb4:	180f883a 	mov	r7,r3
  801bb8:	4009883a 	mov	r4,r8
  801bbc:	480b883a 	mov	r5,r9
  801bc0:	0806e640 	call	806e64 <__subdf3>
  801bc4:	1009883a 	mov	r4,r2
  801bc8:	180b883a 	mov	r5,r3
  801bcc:	2005883a 	mov	r2,r4
  801bd0:	2807883a 	mov	r3,r5
  801bd4:	e13ffc17 	ldw	r4,-16(fp)
  801bd8:	20801615 	stw	r2,88(r4)
  801bdc:	20c01715 	stw	r3,92(r4)
  }
  d->_cg10 = d->_DDDpacemake2_local__Atrig || d->_DDDpacemake2_local__Atrig1 || d->_DDDpacemake2_local__Atrig2;
  801be0:	e0bffc17 	ldw	r2,-16(fp)
  801be4:	10801c03 	ldbu	r2,112(r2)
  801be8:	10803fcc 	andi	r2,r2,255
  801bec:	1080201c 	xori	r2,r2,128
  801bf0:	10bfe004 	addi	r2,r2,-128
  801bf4:	10000c1e 	bne	r2,zero,801c28 <logic+0x11f0>
  801bf8:	e0bffc17 	ldw	r2,-16(fp)
  801bfc:	10801c43 	ldbu	r2,113(r2)
  801c00:	10803fcc 	andi	r2,r2,255
  801c04:	1080201c 	xori	r2,r2,128
  801c08:	10bfe004 	addi	r2,r2,-128
  801c0c:	1000061e 	bne	r2,zero,801c28 <logic+0x11f0>
  801c10:	e0bffc17 	ldw	r2,-16(fp)
  801c14:	10801c83 	ldbu	r2,114(r2)
  801c18:	10803fcc 	andi	r2,r2,255
  801c1c:	1080201c 	xori	r2,r2,128
  801c20:	10bfe004 	addi	r2,r2,-128
  801c24:	10000226 	beq	r2,zero,801c30 <logic+0x11f8>
  801c28:	00800044 	movi	r2,1
  801c2c:	00000106 	br	801c34 <logic+0x11fc>
  801c30:	0005883a 	mov	r2,zero
  801c34:	1007883a 	mov	r3,r2
  801c38:	e0bffc17 	ldw	r2,-16(fp)
  801c3c:	10c03fc5 	stb	r3,255(r2)
  d->_g12 = d->_g9 && !d->_cg10;
  801c40:	e0bffc17 	ldw	r2,-16(fp)
  801c44:	10802003 	ldbu	r2,128(r2)
  801c48:	10803fcc 	andi	r2,r2,255
  801c4c:	1080201c 	xori	r2,r2,128
  801c50:	10bfe004 	addi	r2,r2,-128
  801c54:	10000826 	beq	r2,zero,801c78 <logic+0x1240>
  801c58:	e0bffc17 	ldw	r2,-16(fp)
  801c5c:	10803fc3 	ldbu	r2,255(r2)
  801c60:	10803fcc 	andi	r2,r2,255
  801c64:	1080201c 	xori	r2,r2,128
  801c68:	10bfe004 	addi	r2,r2,-128
  801c6c:	1000021e 	bne	r2,zero,801c78 <logic+0x1240>
  801c70:	00800044 	movi	r2,1
  801c74:	00000106 	br	801c7c <logic+0x1244>
  801c78:	0005883a 	mov	r2,zero
  801c7c:	1007883a 	mov	r3,r2
  801c80:	e0bffc17 	ldw	r2,-16(fp)
  801c84:	10c020c5 	stb	r3,131(r2)
  d->_g11_e1 = !(d->_g15 || d->_g12);
  801c88:	e0bffc17 	ldw	r2,-16(fp)
  801c8c:	10802183 	ldbu	r2,134(r2)
  801c90:	10803fcc 	andi	r2,r2,255
  801c94:	1080201c 	xori	r2,r2,128
  801c98:	10bfe004 	addi	r2,r2,-128
  801c9c:	1000081e 	bne	r2,zero,801cc0 <logic+0x1288>
  801ca0:	e0bffc17 	ldw	r2,-16(fp)
  801ca4:	108020c3 	ldbu	r2,131(r2)
  801ca8:	10803fcc 	andi	r2,r2,255
  801cac:	1080201c 	xori	r2,r2,128
  801cb0:	10bfe004 	addi	r2,r2,-128
  801cb4:	1000021e 	bne	r2,zero,801cc0 <logic+0x1288>
  801cb8:	00800044 	movi	r2,1
  801cbc:	00000106 	br	801cc4 <logic+0x128c>
  801cc0:	0005883a 	mov	r2,zero
  801cc4:	1007883a 	mov	r3,r2
  801cc8:	e0bffc17 	ldw	r2,-16(fp)
  801ccc:	10c04d05 	stb	r3,308(r2)
  d->_g14 = d->_g9 && d->_cg10 || d->_g13 && d->_cg14;
  801cd0:	e0bffc17 	ldw	r2,-16(fp)
  801cd4:	10802003 	ldbu	r2,128(r2)
  801cd8:	10803fcc 	andi	r2,r2,255
  801cdc:	1080201c 	xori	r2,r2,128
  801ce0:	10bfe004 	addi	r2,r2,-128
  801ce4:	10000626 	beq	r2,zero,801d00 <logic+0x12c8>
  801ce8:	e0bffc17 	ldw	r2,-16(fp)
  801cec:	10803fc3 	ldbu	r2,255(r2)
  801cf0:	10803fcc 	andi	r2,r2,255
  801cf4:	1080201c 	xori	r2,r2,128
  801cf8:	10bfe004 	addi	r2,r2,-128
  801cfc:	10000c1e 	bne	r2,zero,801d30 <logic+0x12f8>
  801d00:	e0bffc17 	ldw	r2,-16(fp)
  801d04:	10802103 	ldbu	r2,132(r2)
  801d08:	10803fcc 	andi	r2,r2,255
  801d0c:	1080201c 	xori	r2,r2,128
  801d10:	10bfe004 	addi	r2,r2,-128
  801d14:	10000826 	beq	r2,zero,801d38 <logic+0x1300>
  801d18:	e0bffc17 	ldw	r2,-16(fp)
  801d1c:	10804003 	ldbu	r2,256(r2)
  801d20:	10803fcc 	andi	r2,r2,255
  801d24:	1080201c 	xori	r2,r2,128
  801d28:	10bfe004 	addi	r2,r2,-128
  801d2c:	10000226 	beq	r2,zero,801d38 <logic+0x1300>
  801d30:	00800044 	movi	r2,1
  801d34:	00000106 	br	801d3c <logic+0x1304>
  801d38:	0005883a 	mov	r2,zero
  801d3c:	1007883a 	mov	r3,r2
  801d40:	e0bffc17 	ldw	r2,-16(fp)
  801d44:	10c02145 	stb	r3,133(r2)
  d->_g10 = d->_pg21;
  801d48:	e0bffc17 	ldw	r2,-16(fp)
  801d4c:	10c05383 	ldbu	r3,334(r2)
  801d50:	e0bffc17 	ldw	r2,-16(fp)
  801d54:	10c02045 	stb	r3,129(r2)
  d->_g25 = d->_pg24;
  801d58:	e0bffc17 	ldw	r2,-16(fp)
  801d5c:	10c053c3 	ldbu	r3,335(r2)
  801d60:	e0bffc17 	ldw	r2,-16(fp)
  801d64:	10c023c5 	stb	r3,143(r2)
  d->_g22 = d->_g4 || d->_g10 || d->_g25;
  801d68:	e0bffc17 	ldw	r2,-16(fp)
  801d6c:	10801f03 	ldbu	r2,124(r2)
  801d70:	10803fcc 	andi	r2,r2,255
  801d74:	1080201c 	xori	r2,r2,128
  801d78:	10bfe004 	addi	r2,r2,-128
  801d7c:	10000c1e 	bne	r2,zero,801db0 <logic+0x1378>
  801d80:	e0bffc17 	ldw	r2,-16(fp)
  801d84:	10802043 	ldbu	r2,129(r2)
  801d88:	10803fcc 	andi	r2,r2,255
  801d8c:	1080201c 	xori	r2,r2,128
  801d90:	10bfe004 	addi	r2,r2,-128
  801d94:	1000061e 	bne	r2,zero,801db0 <logic+0x1378>
  801d98:	e0bffc17 	ldw	r2,-16(fp)
  801d9c:	108023c3 	ldbu	r2,143(r2)
  801da0:	10803fcc 	andi	r2,r2,255
  801da4:	1080201c 	xori	r2,r2,128
  801da8:	10bfe004 	addi	r2,r2,-128
  801dac:	10000226 	beq	r2,zero,801db8 <logic+0x1380>
  801db0:	00800044 	movi	r2,1
  801db4:	00000106 	br	801dbc <logic+0x1384>
  801db8:	0005883a 	mov	r2,zero
  801dbc:	1007883a 	mov	r3,r2
  801dc0:	e0bffc17 	ldw	r2,-16(fp)
  801dc4:	10c02305 	stb	r3,140(r2)
  d->_cg18 = d->AVI_counter < d->AVI_DEADLINE;
  801dc8:	e0bffc17 	ldw	r2,-16(fp)
  801dcc:	14000717 	ldw	r16,28(r2)
  801dd0:	14400817 	ldw	r17,32(r2)
  801dd4:	e0bffc17 	ldw	r2,-16(fp)
  801dd8:	10800017 	ldw	r2,0(r2)
  801ddc:	1009883a 	mov	r4,r2
  801de0:	08077600 	call	807760 <__floatsidf>
  801de4:	1009883a 	mov	r4,r2
  801de8:	180b883a 	mov	r5,r3
  801dec:	04800044 	movi	r18,1
  801df0:	200d883a 	mov	r6,r4
  801df4:	280f883a 	mov	r7,r5
  801df8:	8009883a 	mov	r4,r16
  801dfc:	880b883a 	mov	r5,r17
  801e00:	08066580 	call	806658 <__ledf2>
  801e04:	10000116 	blt	r2,zero,801e0c <logic+0x13d4>
  801e08:	0025883a 	mov	r18,zero
  801e0c:	9007883a 	mov	r3,r18
  801e10:	e0bffc17 	ldw	r2,-16(fp)
  801e14:	10c04045 	stb	r3,257(r2)
  d->_g25 = d->_g22 && !d->_cg18;
  801e18:	e0bffc17 	ldw	r2,-16(fp)
  801e1c:	10802303 	ldbu	r2,140(r2)
  801e20:	10803fcc 	andi	r2,r2,255
  801e24:	1080201c 	xori	r2,r2,128
  801e28:	10bfe004 	addi	r2,r2,-128
  801e2c:	10000826 	beq	r2,zero,801e50 <logic+0x1418>
  801e30:	e0bffc17 	ldw	r2,-16(fp)
  801e34:	10804043 	ldbu	r2,257(r2)
  801e38:	10803fcc 	andi	r2,r2,255
  801e3c:	1080201c 	xori	r2,r2,128
  801e40:	10bfe004 	addi	r2,r2,-128
  801e44:	1000021e 	bne	r2,zero,801e50 <logic+0x1418>
  801e48:	00800044 	movi	r2,1
  801e4c:	00000106 	br	801e54 <logic+0x141c>
  801e50:	0005883a 	mov	r2,zero
  801e54:	1007883a 	mov	r3,r2
  801e58:	e0bffc17 	ldw	r2,-16(fp)
  801e5c:	10c023c5 	stb	r3,143(r2)
  d->_cg23 = d->_DDDpacemake2_local__Atrig || d->_DDDpacemake2_local__Atrig1 || d->_DDDpacemake2_local__Atrig2;
  801e60:	e0bffc17 	ldw	r2,-16(fp)
  801e64:	10801c03 	ldbu	r2,112(r2)
  801e68:	10803fcc 	andi	r2,r2,255
  801e6c:	1080201c 	xori	r2,r2,128
  801e70:	10bfe004 	addi	r2,r2,-128
  801e74:	10000c1e 	bne	r2,zero,801ea8 <logic+0x1470>
  801e78:	e0bffc17 	ldw	r2,-16(fp)
  801e7c:	10801c43 	ldbu	r2,113(r2)
  801e80:	10803fcc 	andi	r2,r2,255
  801e84:	1080201c 	xori	r2,r2,128
  801e88:	10bfe004 	addi	r2,r2,-128
  801e8c:	1000061e 	bne	r2,zero,801ea8 <logic+0x1470>
  801e90:	e0bffc17 	ldw	r2,-16(fp)
  801e94:	10801c83 	ldbu	r2,114(r2)
  801e98:	10803fcc 	andi	r2,r2,255
  801e9c:	1080201c 	xori	r2,r2,128
  801ea0:	10bfe004 	addi	r2,r2,-128
  801ea4:	10000226 	beq	r2,zero,801eb0 <logic+0x1478>
  801ea8:	00800044 	movi	r2,1
  801eac:	00000106 	br	801eb4 <logic+0x147c>
  801eb0:	0005883a 	mov	r2,zero
  801eb4:	1007883a 	mov	r3,r2
  801eb8:	e0bffc17 	ldw	r2,-16(fp)
  801ebc:	10c040c5 	stb	r3,259(r2)
  d->_g24 = d->_g25 && !d->_cg23;
  801ec0:	e0bffc17 	ldw	r2,-16(fp)
  801ec4:	108023c3 	ldbu	r2,143(r2)
  801ec8:	10803fcc 	andi	r2,r2,255
  801ecc:	1080201c 	xori	r2,r2,128
  801ed0:	10bfe004 	addi	r2,r2,-128
  801ed4:	10000826 	beq	r2,zero,801ef8 <logic+0x14c0>
  801ed8:	e0bffc17 	ldw	r2,-16(fp)
  801edc:	108040c3 	ldbu	r2,259(r2)
  801ee0:	10803fcc 	andi	r2,r2,255
  801ee4:	1080201c 	xori	r2,r2,128
  801ee8:	10bfe004 	addi	r2,r2,-128
  801eec:	1000021e 	bne	r2,zero,801ef8 <logic+0x14c0>
  801ef0:	00800044 	movi	r2,1
  801ef4:	00000106 	br	801efc <logic+0x14c4>
  801ef8:	0005883a 	mov	r2,zero
  801efc:	1007883a 	mov	r3,r2
  801f00:	e0bffc17 	ldw	r2,-16(fp)
  801f04:	10c02385 	stb	r3,142(r2)
  d->_g18 = d->_g22 && d->_cg18;
  801f08:	e0bffc17 	ldw	r2,-16(fp)
  801f0c:	10802303 	ldbu	r2,140(r2)
  801f10:	10803fcc 	andi	r2,r2,255
  801f14:	1080201c 	xori	r2,r2,128
  801f18:	10bfe004 	addi	r2,r2,-128
  801f1c:	10000826 	beq	r2,zero,801f40 <logic+0x1508>
  801f20:	e0bffc17 	ldw	r2,-16(fp)
  801f24:	10804043 	ldbu	r2,257(r2)
  801f28:	10803fcc 	andi	r2,r2,255
  801f2c:	1080201c 	xori	r2,r2,128
  801f30:	10bfe004 	addi	r2,r2,-128
  801f34:	10000226 	beq	r2,zero,801f40 <logic+0x1508>
  801f38:	00800044 	movi	r2,1
  801f3c:	00000106 	br	801f44 <logic+0x150c>
  801f40:	0005883a 	mov	r2,zero
  801f44:	1007883a 	mov	r3,r2
  801f48:	e0bffc17 	ldw	r2,-16(fp)
  801f4c:	10c02205 	stb	r3,136(r2)
  if (d->_g18) {
  801f50:	e0bffc17 	ldw	r2,-16(fp)
  801f54:	10802203 	ldbu	r2,136(r2)
  801f58:	10803fcc 	andi	r2,r2,255
  801f5c:	1080201c 	xori	r2,r2,128
  801f60:	10bfe004 	addi	r2,r2,-128
  801f64:	10003426 	beq	r2,zero,802038 <logic+0x1600>
    d->sleepT = (d->sleepT < (d->AVI_DEADLINE - d->AVI_counter)) ? d->sleepT : (d->AVI_DEADLINE - d->AVI_counter);
  801f68:	e0bffc17 	ldw	r2,-16(fp)
  801f6c:	14001617 	ldw	r16,88(r2)
  801f70:	14401717 	ldw	r17,92(r2)
  801f74:	e0bffc17 	ldw	r2,-16(fp)
  801f78:	10800017 	ldw	r2,0(r2)
  801f7c:	1009883a 	mov	r4,r2
  801f80:	08077600 	call	807760 <__floatsidf>
  801f84:	1011883a 	mov	r8,r2
  801f88:	1813883a 	mov	r9,r3
  801f8c:	e13ffc17 	ldw	r4,-16(fp)
  801f90:	20800717 	ldw	r2,28(r4)
  801f94:	20c00817 	ldw	r3,32(r4)
  801f98:	100d883a 	mov	r6,r2
  801f9c:	180f883a 	mov	r7,r3
  801fa0:	4009883a 	mov	r4,r8
  801fa4:	480b883a 	mov	r5,r9
  801fa8:	0806e640 	call	806e64 <__subdf3>
  801fac:	1009883a 	mov	r4,r2
  801fb0:	180b883a 	mov	r5,r3
  801fb4:	2005883a 	mov	r2,r4
  801fb8:	2807883a 	mov	r3,r5
  801fbc:	100d883a 	mov	r6,r2
  801fc0:	180f883a 	mov	r7,r3
  801fc4:	8009883a 	mov	r4,r16
  801fc8:	880b883a 	mov	r5,r17
  801fcc:	08066580 	call	806658 <__ledf2>
  801fd0:	1000040e 	bge	r2,zero,801fe4 <logic+0x15ac>
  801fd4:	e13ffc17 	ldw	r4,-16(fp)
  801fd8:	20801617 	ldw	r2,88(r4)
  801fdc:	20c01717 	ldw	r3,92(r4)
  801fe0:	00001206 	br	80202c <logic+0x15f4>
  801fe4:	e0bffc17 	ldw	r2,-16(fp)
  801fe8:	10800017 	ldw	r2,0(r2)
  801fec:	1009883a 	mov	r4,r2
  801ff0:	08077600 	call	807760 <__floatsidf>
  801ff4:	1011883a 	mov	r8,r2
  801ff8:	1813883a 	mov	r9,r3
  801ffc:	e13ffc17 	ldw	r4,-16(fp)
  802000:	20800717 	ldw	r2,28(r4)
  802004:	20c00817 	ldw	r3,32(r4)
  802008:	100d883a 	mov	r6,r2
  80200c:	180f883a 	mov	r7,r3
  802010:	4009883a 	mov	r4,r8
  802014:	480b883a 	mov	r5,r9
  802018:	0806e640 	call	806e64 <__subdf3>
  80201c:	1009883a 	mov	r4,r2
  802020:	180b883a 	mov	r5,r3
  802024:	2005883a 	mov	r2,r4
  802028:	2807883a 	mov	r3,r5
  80202c:	e13ffc17 	ldw	r4,-16(fp)
  802030:	20801615 	stw	r2,88(r4)
  802034:	20c01715 	stw	r3,92(r4)
  }
  d->_cg19 = d->_DDDpacemake2_local__Atrig || d->_DDDpacemake2_local__Atrig1 || d->_DDDpacemake2_local__Atrig2;
  802038:	e0bffc17 	ldw	r2,-16(fp)
  80203c:	10801c03 	ldbu	r2,112(r2)
  802040:	10803fcc 	andi	r2,r2,255
  802044:	1080201c 	xori	r2,r2,128
  802048:	10bfe004 	addi	r2,r2,-128
  80204c:	10000c1e 	bne	r2,zero,802080 <logic+0x1648>
  802050:	e0bffc17 	ldw	r2,-16(fp)
  802054:	10801c43 	ldbu	r2,113(r2)
  802058:	10803fcc 	andi	r2,r2,255
  80205c:	1080201c 	xori	r2,r2,128
  802060:	10bfe004 	addi	r2,r2,-128
  802064:	1000061e 	bne	r2,zero,802080 <logic+0x1648>
  802068:	e0bffc17 	ldw	r2,-16(fp)
  80206c:	10801c83 	ldbu	r2,114(r2)
  802070:	10803fcc 	andi	r2,r2,255
  802074:	1080201c 	xori	r2,r2,128
  802078:	10bfe004 	addi	r2,r2,-128
  80207c:	10000226 	beq	r2,zero,802088 <logic+0x1650>
  802080:	00800044 	movi	r2,1
  802084:	00000106 	br	80208c <logic+0x1654>
  802088:	0005883a 	mov	r2,zero
  80208c:	1007883a 	mov	r3,r2
  802090:	e0bffc17 	ldw	r2,-16(fp)
  802094:	10c04085 	stb	r3,258(r2)
  d->_g21 = d->_g18 && !d->_cg19;
  802098:	e0bffc17 	ldw	r2,-16(fp)
  80209c:	10802203 	ldbu	r2,136(r2)
  8020a0:	10803fcc 	andi	r2,r2,255
  8020a4:	1080201c 	xori	r2,r2,128
  8020a8:	10bfe004 	addi	r2,r2,-128
  8020ac:	10000826 	beq	r2,zero,8020d0 <logic+0x1698>
  8020b0:	e0bffc17 	ldw	r2,-16(fp)
  8020b4:	10804083 	ldbu	r2,258(r2)
  8020b8:	10803fcc 	andi	r2,r2,255
  8020bc:	1080201c 	xori	r2,r2,128
  8020c0:	10bfe004 	addi	r2,r2,-128
  8020c4:	1000021e 	bne	r2,zero,8020d0 <logic+0x1698>
  8020c8:	00800044 	movi	r2,1
  8020cc:	00000106 	br	8020d4 <logic+0x169c>
  8020d0:	0005883a 	mov	r2,zero
  8020d4:	1007883a 	mov	r3,r2
  8020d8:	e0bffc17 	ldw	r2,-16(fp)
  8020dc:	10c022c5 	stb	r3,139(r2)
  d->_g20_e2 = !(d->_g24 || d->_g21);
  8020e0:	e0bffc17 	ldw	r2,-16(fp)
  8020e4:	10802383 	ldbu	r2,142(r2)
  8020e8:	10803fcc 	andi	r2,r2,255
  8020ec:	1080201c 	xori	r2,r2,128
  8020f0:	10bfe004 	addi	r2,r2,-128
  8020f4:	1000081e 	bne	r2,zero,802118 <logic+0x16e0>
  8020f8:	e0bffc17 	ldw	r2,-16(fp)
  8020fc:	108022c3 	ldbu	r2,139(r2)
  802100:	10803fcc 	andi	r2,r2,255
  802104:	1080201c 	xori	r2,r2,128
  802108:	10bfe004 	addi	r2,r2,-128
  80210c:	1000021e 	bne	r2,zero,802118 <logic+0x16e0>
  802110:	00800044 	movi	r2,1
  802114:	00000106 	br	80211c <logic+0x16e4>
  802118:	0005883a 	mov	r2,zero
  80211c:	1007883a 	mov	r3,r2
  802120:	e0bffc17 	ldw	r2,-16(fp)
  802124:	10c04d45 	stb	r3,309(r2)
  d->_g19 = d->_g18 && d->_cg19 || d->_g25 && d->_cg23;
  802128:	e0bffc17 	ldw	r2,-16(fp)
  80212c:	10802203 	ldbu	r2,136(r2)
  802130:	10803fcc 	andi	r2,r2,255
  802134:	1080201c 	xori	r2,r2,128
  802138:	10bfe004 	addi	r2,r2,-128
  80213c:	10000626 	beq	r2,zero,802158 <logic+0x1720>
  802140:	e0bffc17 	ldw	r2,-16(fp)
  802144:	10804083 	ldbu	r2,258(r2)
  802148:	10803fcc 	andi	r2,r2,255
  80214c:	1080201c 	xori	r2,r2,128
  802150:	10bfe004 	addi	r2,r2,-128
  802154:	10000c1e 	bne	r2,zero,802188 <logic+0x1750>
  802158:	e0bffc17 	ldw	r2,-16(fp)
  80215c:	108023c3 	ldbu	r2,143(r2)
  802160:	10803fcc 	andi	r2,r2,255
  802164:	1080201c 	xori	r2,r2,128
  802168:	10bfe004 	addi	r2,r2,-128
  80216c:	10000826 	beq	r2,zero,802190 <logic+0x1758>
  802170:	e0bffc17 	ldw	r2,-16(fp)
  802174:	108040c3 	ldbu	r2,259(r2)
  802178:	10803fcc 	andi	r2,r2,255
  80217c:	1080201c 	xori	r2,r2,128
  802180:	10bfe004 	addi	r2,r2,-128
  802184:	10000226 	beq	r2,zero,802190 <logic+0x1758>
  802188:	00800044 	movi	r2,1
  80218c:	00000106 	br	802194 <logic+0x175c>
  802190:	0005883a 	mov	r2,zero
  802194:	1007883a 	mov	r3,r2
  802198:	e0bffc17 	ldw	r2,-16(fp)
  80219c:	10c02245 	stb	r3,137(r2)
  d->_g23 = d->_g4 || d->_g158 && !d->_cg33;
  8021a0:	e0bffc17 	ldw	r2,-16(fp)
  8021a4:	10801f03 	ldbu	r2,124(r2)
  8021a8:	10803fcc 	andi	r2,r2,255
  8021ac:	1080201c 	xori	r2,r2,128
  8021b0:	10bfe004 	addi	r2,r2,-128
  8021b4:	10000c1e 	bne	r2,zero,8021e8 <logic+0x17b0>
  8021b8:	e0bffc17 	ldw	r2,-16(fp)
  8021bc:	10803c43 	ldbu	r2,241(r2)
  8021c0:	10803fcc 	andi	r2,r2,255
  8021c4:	1080201c 	xori	r2,r2,128
  8021c8:	10bfe004 	addi	r2,r2,-128
  8021cc:	10000826 	beq	r2,zero,8021f0 <logic+0x17b8>
  8021d0:	e0bffc17 	ldw	r2,-16(fp)
  8021d4:	10804103 	ldbu	r2,260(r2)
  8021d8:	10803fcc 	andi	r2,r2,255
  8021dc:	1080201c 	xori	r2,r2,128
  8021e0:	10bfe004 	addi	r2,r2,-128
  8021e4:	1000021e 	bne	r2,zero,8021f0 <logic+0x17b8>
  8021e8:	00800044 	movi	r2,1
  8021ec:	00000106 	br	8021f4 <logic+0x17bc>
  8021f0:	0005883a 	mov	r2,zero
  8021f4:	1007883a 	mov	r3,r2
  8021f8:	e0bffc17 	ldw	r2,-16(fp)
  8021fc:	10c02345 	stb	r3,141(r2)
  d->_g33 = !d->_g23;
  802200:	e0bffc17 	ldw	r2,-16(fp)
  802204:	10802343 	ldbu	r2,141(r2)
  802208:	10803fcc 	andi	r2,r2,255
  80220c:	1080201c 	xori	r2,r2,128
  802210:	10bfe004 	addi	r2,r2,-128
  802214:	1005003a 	cmpeq	r2,r2,zero
  802218:	1007883a 	mov	r3,r2
  80221c:	e0bffc17 	ldw	r2,-16(fp)
  802220:	10c02545 	stb	r3,149(r2)
  d->_g7 = d->_g29 || d->_g158_e1 || d->_g28;
  802224:	e0bffc17 	ldw	r2,-16(fp)
  802228:	10802443 	ldbu	r2,145(r2)
  80222c:	10803fcc 	andi	r2,r2,255
  802230:	1080201c 	xori	r2,r2,128
  802234:	10bfe004 	addi	r2,r2,-128
  802238:	10000c1e 	bne	r2,zero,80226c <logic+0x1834>
  80223c:	e0bffc17 	ldw	r2,-16(fp)
  802240:	10804fc3 	ldbu	r2,319(r2)
  802244:	10803fcc 	andi	r2,r2,255
  802248:	1080201c 	xori	r2,r2,128
  80224c:	10bfe004 	addi	r2,r2,-128
  802250:	1000061e 	bne	r2,zero,80226c <logic+0x1834>
  802254:	e0bffc17 	ldw	r2,-16(fp)
  802258:	10802403 	ldbu	r2,144(r2)
  80225c:	10803fcc 	andi	r2,r2,255
  802260:	1080201c 	xori	r2,r2,128
  802264:	10bfe004 	addi	r2,r2,-128
  802268:	10000226 	beq	r2,zero,802274 <logic+0x183c>
  80226c:	00800044 	movi	r2,1
  802270:	00000106 	br	802278 <logic+0x1840>
  802274:	0005883a 	mov	r2,zero
  802278:	1007883a 	mov	r3,r2
  80227c:	e0bffc17 	ldw	r2,-16(fp)
  802280:	10c01fc5 	stb	r3,127(r2)
  d->_g34 = (d->_g11_e1 || d->_g14) && (d->_g20_e2 || d->_g19) && (d->_g33 || d->_g7) && (d->_g14 || d->_g19 || d->_g7);
  802284:	e0bffc17 	ldw	r2,-16(fp)
  802288:	10804d03 	ldbu	r2,308(r2)
  80228c:	10803fcc 	andi	r2,r2,255
  802290:	1080201c 	xori	r2,r2,128
  802294:	10bfe004 	addi	r2,r2,-128
  802298:	1000061e 	bne	r2,zero,8022b4 <logic+0x187c>
  80229c:	e0bffc17 	ldw	r2,-16(fp)
  8022a0:	10802143 	ldbu	r2,133(r2)
  8022a4:	10803fcc 	andi	r2,r2,255
  8022a8:	1080201c 	xori	r2,r2,128
  8022ac:	10bfe004 	addi	r2,r2,-128
  8022b0:	10002c26 	beq	r2,zero,802364 <logic+0x192c>
  8022b4:	e0bffc17 	ldw	r2,-16(fp)
  8022b8:	10804d43 	ldbu	r2,309(r2)
  8022bc:	10803fcc 	andi	r2,r2,255
  8022c0:	1080201c 	xori	r2,r2,128
  8022c4:	10bfe004 	addi	r2,r2,-128
  8022c8:	1000061e 	bne	r2,zero,8022e4 <logic+0x18ac>
  8022cc:	e0bffc17 	ldw	r2,-16(fp)
  8022d0:	10802243 	ldbu	r2,137(r2)
  8022d4:	10803fcc 	andi	r2,r2,255
  8022d8:	1080201c 	xori	r2,r2,128
  8022dc:	10bfe004 	addi	r2,r2,-128
  8022e0:	10002026 	beq	r2,zero,802364 <logic+0x192c>
  8022e4:	e0bffc17 	ldw	r2,-16(fp)
  8022e8:	10802543 	ldbu	r2,149(r2)
  8022ec:	10803fcc 	andi	r2,r2,255
  8022f0:	1080201c 	xori	r2,r2,128
  8022f4:	10bfe004 	addi	r2,r2,-128
  8022f8:	1000061e 	bne	r2,zero,802314 <logic+0x18dc>
  8022fc:	e0bffc17 	ldw	r2,-16(fp)
  802300:	10801fc3 	ldbu	r2,127(r2)
  802304:	10803fcc 	andi	r2,r2,255
  802308:	1080201c 	xori	r2,r2,128
  80230c:	10bfe004 	addi	r2,r2,-128
  802310:	10001426 	beq	r2,zero,802364 <logic+0x192c>
  802314:	e0bffc17 	ldw	r2,-16(fp)
  802318:	10802143 	ldbu	r2,133(r2)
  80231c:	10803fcc 	andi	r2,r2,255
  802320:	1080201c 	xori	r2,r2,128
  802324:	10bfe004 	addi	r2,r2,-128
  802328:	10000c1e 	bne	r2,zero,80235c <logic+0x1924>
  80232c:	e0bffc17 	ldw	r2,-16(fp)
  802330:	10802243 	ldbu	r2,137(r2)
  802334:	10803fcc 	andi	r2,r2,255
  802338:	1080201c 	xori	r2,r2,128
  80233c:	10bfe004 	addi	r2,r2,-128
  802340:	1000061e 	bne	r2,zero,80235c <logic+0x1924>
  802344:	e0bffc17 	ldw	r2,-16(fp)
  802348:	10801fc3 	ldbu	r2,127(r2)
  80234c:	10803fcc 	andi	r2,r2,255
  802350:	1080201c 	xori	r2,r2,128
  802354:	10bfe004 	addi	r2,r2,-128
  802358:	10000226 	beq	r2,zero,802364 <logic+0x192c>
  80235c:	00800044 	movi	r2,1
  802360:	00000106 	br	802368 <logic+0x1930>
  802364:	0005883a 	mov	r2,zero
  802368:	1007883a 	mov	r3,r2
  80236c:	e0bffc17 	ldw	r2,-16(fp)
  802370:	10c02585 	stb	r3,150(r2)
  d->_cg35 = d->_DDDpacemake2_local__Atrig;
  802374:	e0bffc17 	ldw	r2,-16(fp)
  802378:	10c01c03 	ldbu	r3,112(r2)
  80237c:	e0bffc17 	ldw	r2,-16(fp)
  802380:	10c041c5 	stb	r3,263(r2)
  d->_g29 = d->_g34 && d->_cg35;
  802384:	e0bffc17 	ldw	r2,-16(fp)
  802388:	10802583 	ldbu	r2,150(r2)
  80238c:	10803fcc 	andi	r2,r2,255
  802390:	1080201c 	xori	r2,r2,128
  802394:	10bfe004 	addi	r2,r2,-128
  802398:	10000826 	beq	r2,zero,8023bc <logic+0x1984>
  80239c:	e0bffc17 	ldw	r2,-16(fp)
  8023a0:	108041c3 	ldbu	r2,263(r2)
  8023a4:	10803fcc 	andi	r2,r2,255
  8023a8:	1080201c 	xori	r2,r2,128
  8023ac:	10bfe004 	addi	r2,r2,-128
  8023b0:	10000226 	beq	r2,zero,8023bc <logic+0x1984>
  8023b4:	00800044 	movi	r2,1
  8023b8:	00000106 	br	8023c0 <logic+0x1988>
  8023bc:	0005883a 	mov	r2,zero
  8023c0:	1007883a 	mov	r3,r2
  8023c4:	e0bffc17 	ldw	r2,-16(fp)
  8023c8:	10c02445 	stb	r3,145(r2)
  if (d->_g29) {
  8023cc:	e0bffc17 	ldw	r2,-16(fp)
  8023d0:	10802443 	ldbu	r2,145(r2)
  8023d4:	10803fcc 	andi	r2,r2,255
  8023d8:	1080201c 	xori	r2,r2,128
  8023dc:	10bfe004 	addi	r2,r2,-128
  8023e0:	10000426 	beq	r2,zero,8023f4 <logic+0x19bc>
    d->_DDDpacemake2_local_AVI_state = 0;
  8023e4:	e0bffc17 	ldw	r2,-16(fp)
  8023e8:	10001805 	stb	zero,96(r2)
    d->VP = 0;
  8023ec:	e0bffc17 	ldw	r2,-16(fp)
  8023f0:	10001345 	stb	zero,77(r2)
  }
  d->_g32 = d->_pg39;
  8023f4:	e0bffc17 	ldw	r2,-16(fp)
  8023f8:	10c05403 	ldbu	r3,336(r2)
  8023fc:	e0bffc17 	ldw	r2,-16(fp)
  802400:	10c02505 	stb	r3,148(r2)
  d->_cg39 = d->_DDDpacemake2_local_real_VS;
  802404:	e0bffc17 	ldw	r2,-16(fp)
  802408:	10c01ac3 	ldbu	r3,107(r2)
  80240c:	e0bffc17 	ldw	r2,-16(fp)
  802410:	10c04285 	stb	r3,266(r2)
  d->_g30 = d->_g32 && d->_cg39;
  802414:	e0bffc17 	ldw	r2,-16(fp)
  802418:	10802503 	ldbu	r2,148(r2)
  80241c:	10803fcc 	andi	r2,r2,255
  802420:	1080201c 	xori	r2,r2,128
  802424:	10bfe004 	addi	r2,r2,-128
  802428:	10000826 	beq	r2,zero,80244c <logic+0x1a14>
  80242c:	e0bffc17 	ldw	r2,-16(fp)
  802430:	10804283 	ldbu	r2,266(r2)
  802434:	10803fcc 	andi	r2,r2,255
  802438:	1080201c 	xori	r2,r2,128
  80243c:	10bfe004 	addi	r2,r2,-128
  802440:	10000226 	beq	r2,zero,80244c <logic+0x1a14>
  802444:	00800044 	movi	r2,1
  802448:	00000106 	br	802450 <logic+0x1a18>
  80244c:	0005883a 	mov	r2,zero
  802450:	1007883a 	mov	r3,r2
  802454:	e0bffc17 	ldw	r2,-16(fp)
  802458:	10c02485 	stb	r3,146(r2)
  if (d->_g30) {
  80245c:	e0bffc17 	ldw	r2,-16(fp)
  802460:	10802483 	ldbu	r2,146(r2)
  802464:	10803fcc 	andi	r2,r2,255
  802468:	1080201c 	xori	r2,r2,128
  80246c:	10bfe004 	addi	r2,r2,-128
  802470:	10000426 	beq	r2,zero,802484 <logic+0x1a4c>
    d->VP = 0;
  802474:	e0bffc17 	ldw	r2,-16(fp)
  802478:	10001345 	stb	zero,77(r2)
    d->_DDDpacemake2_local_AVI_state = 0;
  80247c:	e0bffc17 	ldw	r2,-16(fp)
  802480:	10001805 	stb	zero,96(r2)
  }
  d->_g30_e3 = d->_g32 && !d->_cg39;
  802484:	e0bffc17 	ldw	r2,-16(fp)
  802488:	10802503 	ldbu	r2,148(r2)
  80248c:	10803fcc 	andi	r2,r2,255
  802490:	1080201c 	xori	r2,r2,128
  802494:	10bfe004 	addi	r2,r2,-128
  802498:	10000826 	beq	r2,zero,8024bc <logic+0x1a84>
  80249c:	e0bffc17 	ldw	r2,-16(fp)
  8024a0:	10804283 	ldbu	r2,266(r2)
  8024a4:	10803fcc 	andi	r2,r2,255
  8024a8:	1080201c 	xori	r2,r2,128
  8024ac:	10bfe004 	addi	r2,r2,-128
  8024b0:	1000021e 	bne	r2,zero,8024bc <logic+0x1a84>
  8024b4:	00800044 	movi	r2,1
  8024b8:	00000106 	br	8024c0 <logic+0x1a88>
  8024bc:	0005883a 	mov	r2,zero
  8024c0:	1007883a 	mov	r3,r2
  8024c4:	e0bffc17 	ldw	r2,-16(fp)
  8024c8:	10c04d85 	stb	r3,310(r2)
  d->_cg41 = d->_DDDpacemake2_local_URI_state == 0;
  8024cc:	e0bffc17 	ldw	r2,-16(fp)
  8024d0:	10801943 	ldbu	r2,101(r2)
  8024d4:	10803fcc 	andi	r2,r2,255
  8024d8:	1080201c 	xori	r2,r2,128
  8024dc:	10bfe004 	addi	r2,r2,-128
  8024e0:	1005003a 	cmpeq	r2,r2,zero
  8024e4:	1007883a 	mov	r3,r2
  8024e8:	e0bffc17 	ldw	r2,-16(fp)
  8024ec:	10c04245 	stb	r3,265(r2)
  d->_g20 = d->_g30_e3 && d->_cg41;
  8024f0:	e0bffc17 	ldw	r2,-16(fp)
  8024f4:	10804d83 	ldbu	r2,310(r2)
  8024f8:	10803fcc 	andi	r2,r2,255
  8024fc:	1080201c 	xori	r2,r2,128
  802500:	10bfe004 	addi	r2,r2,-128
  802504:	10000826 	beq	r2,zero,802528 <logic+0x1af0>
  802508:	e0bffc17 	ldw	r2,-16(fp)
  80250c:	10804243 	ldbu	r2,265(r2)
  802510:	10803fcc 	andi	r2,r2,255
  802514:	1080201c 	xori	r2,r2,128
  802518:	10bfe004 	addi	r2,r2,-128
  80251c:	10000226 	beq	r2,zero,802528 <logic+0x1af0>
  802520:	00800044 	movi	r2,1
  802524:	00000106 	br	80252c <logic+0x1af4>
  802528:	0005883a 	mov	r2,zero
  80252c:	1007883a 	mov	r3,r2
  802530:	e0bffc17 	ldw	r2,-16(fp)
  802534:	10c02285 	stb	r3,138(r2)
  if (d->_g20) {
  802538:	e0bffc17 	ldw	r2,-16(fp)
  80253c:	10802283 	ldbu	r2,138(r2)
  802540:	10803fcc 	andi	r2,r2,255
  802544:	1080201c 	xori	r2,r2,128
  802548:	10bfe004 	addi	r2,r2,-128
  80254c:	10000b26 	beq	r2,zero,80257c <logic+0x1b44>
    d->VP = 1;
  802550:	e0bffc17 	ldw	r2,-16(fp)
  802554:	00c00044 	movi	r3,1
  802558:	10c01345 	stb	r3,77(r2)
    d->_DDDpacemake2_local_VP_temp |= 1;
  80255c:	e0bffc17 	ldw	r2,-16(fp)
  802560:	10801a43 	ldbu	r2,105(r2)
  802564:	10800054 	ori	r2,r2,1
  802568:	1007883a 	mov	r3,r2
  80256c:	e0bffc17 	ldw	r2,-16(fp)
  802570:	10c01a45 	stb	r3,105(r2)
    d->_DDDpacemake2_local_AVI_state = 0;
  802574:	e0bffc17 	ldw	r2,-16(fp)
  802578:	10001805 	stb	zero,96(r2)
  }
  d->_g11 = d->_g34 && !d->_cg35;
  80257c:	e0bffc17 	ldw	r2,-16(fp)
  802580:	10802583 	ldbu	r2,150(r2)
  802584:	10803fcc 	andi	r2,r2,255
  802588:	1080201c 	xori	r2,r2,128
  80258c:	10bfe004 	addi	r2,r2,-128
  802590:	10000826 	beq	r2,zero,8025b4 <logic+0x1b7c>
  802594:	e0bffc17 	ldw	r2,-16(fp)
  802598:	108041c3 	ldbu	r2,263(r2)
  80259c:	10803fcc 	andi	r2,r2,255
  8025a0:	1080201c 	xori	r2,r2,128
  8025a4:	10bfe004 	addi	r2,r2,-128
  8025a8:	1000021e 	bne	r2,zero,8025b4 <logic+0x1b7c>
  8025ac:	00800044 	movi	r2,1
  8025b0:	00000106 	br	8025b8 <logic+0x1b80>
  8025b4:	0005883a 	mov	r2,zero
  8025b8:	1007883a 	mov	r3,r2
  8025bc:	e0bffc17 	ldw	r2,-16(fp)
  8025c0:	10c02085 	stb	r3,130(r2)
  d->_cg37 = d->_DDDpacemake2_local__Atrig1;
  8025c4:	e0bffc17 	ldw	r2,-16(fp)
  8025c8:	10c01c43 	ldbu	r3,113(r2)
  8025cc:	e0bffc17 	ldw	r2,-16(fp)
  8025d0:	10c04205 	stb	r3,264(r2)
  d->_g20_e2 = d->_g11 && !d->_cg37;
  8025d4:	e0bffc17 	ldw	r2,-16(fp)
  8025d8:	10802083 	ldbu	r2,130(r2)
  8025dc:	10803fcc 	andi	r2,r2,255
  8025e0:	1080201c 	xori	r2,r2,128
  8025e4:	10bfe004 	addi	r2,r2,-128
  8025e8:	10000826 	beq	r2,zero,80260c <logic+0x1bd4>
  8025ec:	e0bffc17 	ldw	r2,-16(fp)
  8025f0:	10804203 	ldbu	r2,264(r2)
  8025f4:	10803fcc 	andi	r2,r2,255
  8025f8:	1080201c 	xori	r2,r2,128
  8025fc:	10bfe004 	addi	r2,r2,-128
  802600:	1000021e 	bne	r2,zero,80260c <logic+0x1bd4>
  802604:	00800044 	movi	r2,1
  802608:	00000106 	br	802610 <logic+0x1bd8>
  80260c:	0005883a 	mov	r2,zero
  802610:	1007883a 	mov	r3,r2
  802614:	e0bffc17 	ldw	r2,-16(fp)
  802618:	10c04d45 	stb	r3,309(r2)
  if (d->_g20_e2) {
  80261c:	e0bffc17 	ldw	r2,-16(fp)
  802620:	10804d43 	ldbu	r2,309(r2)
  802624:	10803fcc 	andi	r2,r2,255
  802628:	1080201c 	xori	r2,r2,128
  80262c:	10bfe004 	addi	r2,r2,-128
  802630:	10000b26 	beq	r2,zero,802660 <logic+0x1c28>
    d->VP = 1;
  802634:	e0bffc17 	ldw	r2,-16(fp)
  802638:	00c00044 	movi	r3,1
  80263c:	10c01345 	stb	r3,77(r2)
    d->_DDDpacemake2_local_VP_temp |= 1;
  802640:	e0bffc17 	ldw	r2,-16(fp)
  802644:	10801a43 	ldbu	r2,105(r2)
  802648:	10800054 	ori	r2,r2,1
  80264c:	1007883a 	mov	r3,r2
  802650:	e0bffc17 	ldw	r2,-16(fp)
  802654:	10c01a45 	stb	r3,105(r2)
    d->_DDDpacemake2_local_AVI_state = 0;
  802658:	e0bffc17 	ldw	r2,-16(fp)
  80265c:	10001805 	stb	zero,96(r2)
  }
  d->_g11_e1 = d->_GO || d->_g5 || d->_g29 || d->_g30 || d->_g20 || d->_g20_e2 || d->_g31 && !d->_cg6;
  802660:	e0bffc17 	ldw	r2,-16(fp)
  802664:	10803ec3 	ldbu	r2,251(r2)
  802668:	10803fcc 	andi	r2,r2,255
  80266c:	1080201c 	xori	r2,r2,128
  802670:	10bfe004 	addi	r2,r2,-128
  802674:	10002a1e 	bne	r2,zero,802720 <logic+0x1ce8>
  802678:	e0bffc17 	ldw	r2,-16(fp)
  80267c:	10801f43 	ldbu	r2,125(r2)
  802680:	10803fcc 	andi	r2,r2,255
  802684:	1080201c 	xori	r2,r2,128
  802688:	10bfe004 	addi	r2,r2,-128
  80268c:	1000241e 	bne	r2,zero,802720 <logic+0x1ce8>
  802690:	e0bffc17 	ldw	r2,-16(fp)
  802694:	10802443 	ldbu	r2,145(r2)
  802698:	10803fcc 	andi	r2,r2,255
  80269c:	1080201c 	xori	r2,r2,128
  8026a0:	10bfe004 	addi	r2,r2,-128
  8026a4:	10001e1e 	bne	r2,zero,802720 <logic+0x1ce8>
  8026a8:	e0bffc17 	ldw	r2,-16(fp)
  8026ac:	10802483 	ldbu	r2,146(r2)
  8026b0:	10803fcc 	andi	r2,r2,255
  8026b4:	1080201c 	xori	r2,r2,128
  8026b8:	10bfe004 	addi	r2,r2,-128
  8026bc:	1000181e 	bne	r2,zero,802720 <logic+0x1ce8>
  8026c0:	e0bffc17 	ldw	r2,-16(fp)
  8026c4:	10802283 	ldbu	r2,138(r2)
  8026c8:	10803fcc 	andi	r2,r2,255
  8026cc:	1080201c 	xori	r2,r2,128
  8026d0:	10bfe004 	addi	r2,r2,-128
  8026d4:	1000121e 	bne	r2,zero,802720 <logic+0x1ce8>
  8026d8:	e0bffc17 	ldw	r2,-16(fp)
  8026dc:	10804d43 	ldbu	r2,309(r2)
  8026e0:	10803fcc 	andi	r2,r2,255
  8026e4:	1080201c 	xori	r2,r2,128
  8026e8:	10bfe004 	addi	r2,r2,-128
  8026ec:	10000c1e 	bne	r2,zero,802720 <logic+0x1ce8>
  8026f0:	e0bffc17 	ldw	r2,-16(fp)
  8026f4:	108024c3 	ldbu	r2,147(r2)
  8026f8:	10803fcc 	andi	r2,r2,255
  8026fc:	1080201c 	xori	r2,r2,128
  802700:	10bfe004 	addi	r2,r2,-128
  802704:	10000826 	beq	r2,zero,802728 <logic+0x1cf0>
  802708:	e0bffc17 	ldw	r2,-16(fp)
  80270c:	10803f03 	ldbu	r2,252(r2)
  802710:	10803fcc 	andi	r2,r2,255
  802714:	1080201c 	xori	r2,r2,128
  802718:	10bfe004 	addi	r2,r2,-128
  80271c:	1000021e 	bne	r2,zero,802728 <logic+0x1cf0>
  802720:	00800044 	movi	r2,1
  802724:	00000106 	br	80272c <logic+0x1cf4>
  802728:	0005883a 	mov	r2,zero
  80272c:	1007883a 	mov	r3,r2
  802730:	e0bffc17 	ldw	r2,-16(fp)
  802734:	10c04d05 	stb	r3,308(r2)
  d->_g39 = d->_g11 && d->_cg37 || d->_g30_e3 && !d->_cg41;
  802738:	e0bffc17 	ldw	r2,-16(fp)
  80273c:	10802083 	ldbu	r2,130(r2)
  802740:	10803fcc 	andi	r2,r2,255
  802744:	1080201c 	xori	r2,r2,128
  802748:	10bfe004 	addi	r2,r2,-128
  80274c:	10000626 	beq	r2,zero,802768 <logic+0x1d30>
  802750:	e0bffc17 	ldw	r2,-16(fp)
  802754:	10804203 	ldbu	r2,264(r2)
  802758:	10803fcc 	andi	r2,r2,255
  80275c:	1080201c 	xori	r2,r2,128
  802760:	10bfe004 	addi	r2,r2,-128
  802764:	10000c1e 	bne	r2,zero,802798 <logic+0x1d60>
  802768:	e0bffc17 	ldw	r2,-16(fp)
  80276c:	10804d83 	ldbu	r2,310(r2)
  802770:	10803fcc 	andi	r2,r2,255
  802774:	1080201c 	xori	r2,r2,128
  802778:	10bfe004 	addi	r2,r2,-128
  80277c:	10000826 	beq	r2,zero,8027a0 <logic+0x1d68>
  802780:	e0bffc17 	ldw	r2,-16(fp)
  802784:	10804243 	ldbu	r2,265(r2)
  802788:	10803fcc 	andi	r2,r2,255
  80278c:	1080201c 	xori	r2,r2,128
  802790:	10bfe004 	addi	r2,r2,-128
  802794:	1000021e 	bne	r2,zero,8027a0 <logic+0x1d68>
  802798:	00800044 	movi	r2,1
  80279c:	00000106 	br	8027a4 <logic+0x1d6c>
  8027a0:	0005883a 	mov	r2,zero
  8027a4:	1007883a 	mov	r3,r2
  8027a8:	e0bffc17 	ldw	r2,-16(fp)
  8027ac:	10c02685 	stb	r3,154(r2)
  d->_g35 = d->_pg54_e1;
  8027b0:	e0bffc17 	ldw	r2,-16(fp)
  8027b4:	10c05443 	ldbu	r3,337(r2)
  8027b8:	e0bffc17 	ldw	r2,-16(fp)
  8027bc:	10c025c5 	stb	r3,151(r2)
  d->_cg47 = !d->_DDDpacemake2_local_real_VS && !d->_DDDpacemake2_local_AP_temp;
  8027c0:	e0bffc17 	ldw	r2,-16(fp)
  8027c4:	10801ac3 	ldbu	r2,107(r2)
  8027c8:	10803fcc 	andi	r2,r2,255
  8027cc:	1080201c 	xori	r2,r2,128
  8027d0:	10bfe004 	addi	r2,r2,-128
  8027d4:	1000081e 	bne	r2,zero,8027f8 <logic+0x1dc0>
  8027d8:	e0bffc17 	ldw	r2,-16(fp)
  8027dc:	10801a03 	ldbu	r2,104(r2)
  8027e0:	10803fcc 	andi	r2,r2,255
  8027e4:	1080201c 	xori	r2,r2,128
  8027e8:	10bfe004 	addi	r2,r2,-128
  8027ec:	1000021e 	bne	r2,zero,8027f8 <logic+0x1dc0>
  8027f0:	00800044 	movi	r2,1
  8027f4:	00000106 	br	8027fc <logic+0x1dc4>
  8027f8:	0005883a 	mov	r2,zero
  8027fc:	1007883a 	mov	r3,r2
  802800:	e0bffc17 	ldw	r2,-16(fp)
  802804:	10c04305 	stb	r3,268(r2)
  d->_g40 = d->_g35 && d->_cg47;
  802808:	e0bffc17 	ldw	r2,-16(fp)
  80280c:	108025c3 	ldbu	r2,151(r2)
  802810:	10803fcc 	andi	r2,r2,255
  802814:	1080201c 	xori	r2,r2,128
  802818:	10bfe004 	addi	r2,r2,-128
  80281c:	10000826 	beq	r2,zero,802840 <logic+0x1e08>
  802820:	e0bffc17 	ldw	r2,-16(fp)
  802824:	10804303 	ldbu	r2,268(r2)
  802828:	10803fcc 	andi	r2,r2,255
  80282c:	1080201c 	xori	r2,r2,128
  802830:	10bfe004 	addi	r2,r2,-128
  802834:	10000226 	beq	r2,zero,802840 <logic+0x1e08>
  802838:	00800044 	movi	r2,1
  80283c:	00000106 	br	802844 <logic+0x1e0c>
  802840:	0005883a 	mov	r2,zero
  802844:	1007883a 	mov	r3,r2
  802848:	e0bffc17 	ldw	r2,-16(fp)
  80284c:	10c026c5 	stb	r3,155(r2)
  if (d->_g40) {
  802850:	e0bffc17 	ldw	r2,-16(fp)
  802854:	108026c3 	ldbu	r2,155(r2)
  802858:	10803fcc 	andi	r2,r2,255
  80285c:	1080201c 	xori	r2,r2,128
  802860:	10bfe004 	addi	r2,r2,-128
  802864:	10000226 	beq	r2,zero,802870 <logic+0x1e38>
    d->AP = 0;
  802868:	e0bffc17 	ldw	r2,-16(fp)
  80286c:	10001305 	stb	zero,76(r2)
  }
  d->_g42 = d->_pg53;
  802870:	e0bffc17 	ldw	r2,-16(fp)
  802874:	10c05483 	ldbu	r3,338(r2)
  802878:	e0bffc17 	ldw	r2,-16(fp)
  80287c:	10c02745 	stb	r3,157(r2)
  d->_cg62 = d->_DDDpacemake2_local_real_AS;
  802880:	e0bffc17 	ldw	r2,-16(fp)
  802884:	10c01a83 	ldbu	r3,106(r2)
  802888:	e0bffc17 	ldw	r2,-16(fp)
  80288c:	10c04445 	stb	r3,273(r2)
  d->_g43 = d->_g42 && d->_cg62;
  802890:	e0bffc17 	ldw	r2,-16(fp)
  802894:	10802743 	ldbu	r2,157(r2)
  802898:	10803fcc 	andi	r2,r2,255
  80289c:	1080201c 	xori	r2,r2,128
  8028a0:	10bfe004 	addi	r2,r2,-128
  8028a4:	10000826 	beq	r2,zero,8028c8 <logic+0x1e90>
  8028a8:	e0bffc17 	ldw	r2,-16(fp)
  8028ac:	10804443 	ldbu	r2,273(r2)
  8028b0:	10803fcc 	andi	r2,r2,255
  8028b4:	1080201c 	xori	r2,r2,128
  8028b8:	10bfe004 	addi	r2,r2,-128
  8028bc:	10000226 	beq	r2,zero,8028c8 <logic+0x1e90>
  8028c0:	00800044 	movi	r2,1
  8028c4:	00000106 	br	8028cc <logic+0x1e94>
  8028c8:	0005883a 	mov	r2,zero
  8028cc:	1007883a 	mov	r3,r2
  8028d0:	e0bffc17 	ldw	r2,-16(fp)
  8028d4:	10c02785 	stb	r3,158(r2)
  if (d->_g43) {
  8028d8:	e0bffc17 	ldw	r2,-16(fp)
  8028dc:	10802783 	ldbu	r2,158(r2)
  8028e0:	10803fcc 	andi	r2,r2,255
  8028e4:	1080201c 	xori	r2,r2,128
  8028e8:	10bfe004 	addi	r2,r2,-128
  8028ec:	10000326 	beq	r2,zero,8028fc <logic+0x1ec4>
    d->_DDDpacemake2_local__Atrig3 = 1;
  8028f0:	e0bffc17 	ldw	r2,-16(fp)
  8028f4:	00c00044 	movi	r3,1
  8028f8:	10c01cc5 	stb	r3,115(r2)
  }
  d->_g5 = d->_pg147;
  8028fc:	e0bffc17 	ldw	r2,-16(fp)
  802900:	10c054c3 	ldbu	r3,339(r2)
  802904:	e0bffc17 	ldw	r2,-16(fp)
  802908:	10c01f45 	stb	r3,125(r2)
  if (d->_g5) {
  80290c:	e0bffc17 	ldw	r2,-16(fp)
  802910:	10801f43 	ldbu	r2,125(r2)
  802914:	10803fcc 	andi	r2,r2,255
  802918:	1080201c 	xori	r2,r2,128
  80291c:	10bfe004 	addi	r2,r2,-128
  802920:	10001226 	beq	r2,zero,80296c <logic+0x1f34>
    d->AEI_counter += d->deltaT;
  802924:	e13ffc17 	ldw	r4,-16(fp)
  802928:	20800917 	ldw	r2,36(r4)
  80292c:	20c00a17 	ldw	r3,40(r4)
  802930:	e1bffc17 	ldw	r6,-16(fp)
  802934:	31001417 	ldw	r4,80(r6)
  802938:	31401517 	ldw	r5,84(r6)
  80293c:	200d883a 	mov	r6,r4
  802940:	280f883a 	mov	r7,r5
  802944:	1009883a 	mov	r4,r2
  802948:	180b883a 	mov	r5,r3
  80294c:	0805cd00 	call	805cd0 <__adddf3>
  802950:	1009883a 	mov	r4,r2
  802954:	180b883a 	mov	r5,r3
  802958:	2005883a 	mov	r2,r4
  80295c:	2807883a 	mov	r3,r5
  802960:	e13ffc17 	ldw	r4,-16(fp)
  802964:	20800915 	stw	r2,36(r4)
  802968:	20c00a15 	stw	r3,40(r4)
  }
  d->_g6 = d->_g42 && !d->_cg62;
  80296c:	e0bffc17 	ldw	r2,-16(fp)
  802970:	10802743 	ldbu	r2,157(r2)
  802974:	10803fcc 	andi	r2,r2,255
  802978:	1080201c 	xori	r2,r2,128
  80297c:	10bfe004 	addi	r2,r2,-128
  802980:	10000826 	beq	r2,zero,8029a4 <logic+0x1f6c>
  802984:	e0bffc17 	ldw	r2,-16(fp)
  802988:	10804443 	ldbu	r2,273(r2)
  80298c:	10803fcc 	andi	r2,r2,255
  802990:	1080201c 	xori	r2,r2,128
  802994:	10bfe004 	addi	r2,r2,-128
  802998:	1000021e 	bne	r2,zero,8029a4 <logic+0x1f6c>
  80299c:	00800044 	movi	r2,1
  8029a0:	00000106 	br	8029a8 <logic+0x1f70>
  8029a4:	0005883a 	mov	r2,zero
  8029a8:	1007883a 	mov	r3,r2
  8029ac:	e0bffc17 	ldw	r2,-16(fp)
  8029b0:	10c01f85 	stb	r3,126(r2)
  d->_cg65 = d->AEI_counter >= d->AEI_DEADLINE;
  8029b4:	e0bffc17 	ldw	r2,-16(fp)
  8029b8:	14000917 	ldw	r16,36(r2)
  8029bc:	14400a17 	ldw	r17,40(r2)
  8029c0:	e0bffc17 	ldw	r2,-16(fp)
  8029c4:	10800217 	ldw	r2,8(r2)
  8029c8:	1009883a 	mov	r4,r2
  8029cc:	08077600 	call	807760 <__floatsidf>
  8029d0:	1009883a 	mov	r4,r2
  8029d4:	180b883a 	mov	r5,r3
  8029d8:	04800044 	movi	r18,1
  8029dc:	200d883a 	mov	r6,r4
  8029e0:	280f883a 	mov	r7,r5
  8029e4:	8009883a 	mov	r4,r16
  8029e8:	880b883a 	mov	r5,r17
  8029ec:	080657c0 	call	80657c <__gedf2>
  8029f0:	1000010e 	bge	r2,zero,8029f8 <logic+0x1fc0>
  8029f4:	0025883a 	mov	r18,zero
  8029f8:	9007883a 	mov	r3,r18
  8029fc:	e0bffc17 	ldw	r2,-16(fp)
  802a00:	10c04405 	stb	r3,272(r2)
  d->_g36 = d->_g6 && d->_cg65;
  802a04:	e0bffc17 	ldw	r2,-16(fp)
  802a08:	10801f83 	ldbu	r2,126(r2)
  802a0c:	10803fcc 	andi	r2,r2,255
  802a10:	1080201c 	xori	r2,r2,128
  802a14:	10bfe004 	addi	r2,r2,-128
  802a18:	10000826 	beq	r2,zero,802a3c <logic+0x2004>
  802a1c:	e0bffc17 	ldw	r2,-16(fp)
  802a20:	10804403 	ldbu	r2,272(r2)
  802a24:	10803fcc 	andi	r2,r2,255
  802a28:	1080201c 	xori	r2,r2,128
  802a2c:	10bfe004 	addi	r2,r2,-128
  802a30:	10000226 	beq	r2,zero,802a3c <logic+0x2004>
  802a34:	00800044 	movi	r2,1
  802a38:	00000106 	br	802a40 <logic+0x2008>
  802a3c:	0005883a 	mov	r2,zero
  802a40:	1007883a 	mov	r3,r2
  802a44:	e0bffc17 	ldw	r2,-16(fp)
  802a48:	10c02605 	stb	r3,152(r2)
  if (d->_g36) {
  802a4c:	e0bffc17 	ldw	r2,-16(fp)
  802a50:	10802603 	ldbu	r2,152(r2)
  802a54:	10803fcc 	andi	r2,r2,255
  802a58:	1080201c 	xori	r2,r2,128
  802a5c:	10bfe004 	addi	r2,r2,-128
  802a60:	10000326 	beq	r2,zero,802a70 <logic+0x2038>
    d->_DDDpacemake2_local__Atrig4 = 1;
  802a64:	e0bffc17 	ldw	r2,-16(fp)
  802a68:	00c00044 	movi	r3,1
  802a6c:	10c01d05 	stb	r3,116(r2)
  }
  d->_g37 = d->_g35 && !d->_cg47;
  802a70:	e0bffc17 	ldw	r2,-16(fp)
  802a74:	108025c3 	ldbu	r2,151(r2)
  802a78:	10803fcc 	andi	r2,r2,255
  802a7c:	1080201c 	xori	r2,r2,128
  802a80:	10bfe004 	addi	r2,r2,-128
  802a84:	10000826 	beq	r2,zero,802aa8 <logic+0x2070>
  802a88:	e0bffc17 	ldw	r2,-16(fp)
  802a8c:	10804303 	ldbu	r2,268(r2)
  802a90:	10803fcc 	andi	r2,r2,255
  802a94:	1080201c 	xori	r2,r2,128
  802a98:	10bfe004 	addi	r2,r2,-128
  802a9c:	1000021e 	bne	r2,zero,802aa8 <logic+0x2070>
  802aa0:	00800044 	movi	r2,1
  802aa4:	00000106 	br	802aac <logic+0x2074>
  802aa8:	0005883a 	mov	r2,zero
  802aac:	1007883a 	mov	r3,r2
  802ab0:	e0bffc17 	ldw	r2,-16(fp)
  802ab4:	10c02645 	stb	r3,153(r2)
  d->_cg49 = d->_DDDpacemake2_local_real_VS || d->_DDDpacemake2_local_VP_temp;
  802ab8:	e0bffc17 	ldw	r2,-16(fp)
  802abc:	10801ac3 	ldbu	r2,107(r2)
  802ac0:	10803fcc 	andi	r2,r2,255
  802ac4:	1080201c 	xori	r2,r2,128
  802ac8:	10bfe004 	addi	r2,r2,-128
  802acc:	1000061e 	bne	r2,zero,802ae8 <logic+0x20b0>
  802ad0:	e0bffc17 	ldw	r2,-16(fp)
  802ad4:	10801a43 	ldbu	r2,105(r2)
  802ad8:	10803fcc 	andi	r2,r2,255
  802adc:	1080201c 	xori	r2,r2,128
  802ae0:	10bfe004 	addi	r2,r2,-128
  802ae4:	10000226 	beq	r2,zero,802af0 <logic+0x20b8>
  802ae8:	00800044 	movi	r2,1
  802aec:	00000106 	br	802af4 <logic+0x20bc>
  802af0:	0005883a 	mov	r2,zero
  802af4:	1007883a 	mov	r3,r2
  802af8:	e0bffc17 	ldw	r2,-16(fp)
  802afc:	10c042c5 	stb	r3,267(r2)
  d->_g41 = d->_g37 && d->_cg49;
  802b00:	e0bffc17 	ldw	r2,-16(fp)
  802b04:	10802643 	ldbu	r2,153(r2)
  802b08:	10803fcc 	andi	r2,r2,255
  802b0c:	1080201c 	xori	r2,r2,128
  802b10:	10bfe004 	addi	r2,r2,-128
  802b14:	10000826 	beq	r2,zero,802b38 <logic+0x2100>
  802b18:	e0bffc17 	ldw	r2,-16(fp)
  802b1c:	108042c3 	ldbu	r2,267(r2)
  802b20:	10803fcc 	andi	r2,r2,255
  802b24:	1080201c 	xori	r2,r2,128
  802b28:	10bfe004 	addi	r2,r2,-128
  802b2c:	10000226 	beq	r2,zero,802b38 <logic+0x2100>
  802b30:	00800044 	movi	r2,1
  802b34:	00000106 	br	802b3c <logic+0x2104>
  802b38:	0005883a 	mov	r2,zero
  802b3c:	1007883a 	mov	r3,r2
  802b40:	e0bffc17 	ldw	r2,-16(fp)
  802b44:	10c02705 	stb	r3,156(r2)
  if (d->_g41) {
  802b48:	e0bffc17 	ldw	r2,-16(fp)
  802b4c:	10802703 	ldbu	r2,156(r2)
  802b50:	10803fcc 	andi	r2,r2,255
  802b54:	1080201c 	xori	r2,r2,128
  802b58:	10bfe004 	addi	r2,r2,-128
  802b5c:	10000a26 	beq	r2,zero,802b88 <logic+0x2150>
    d->_DDDpacemake2_local_AEI_state = 1;
  802b60:	e0bffc17 	ldw	r2,-16(fp)
  802b64:	00c00044 	movi	r3,1
  802b68:	10c01845 	stb	r3,97(r2)
    d->AEI_counter = 0;
  802b6c:	e0bffc17 	ldw	r2,-16(fp)
  802b70:	10000915 	stw	zero,36(r2)
  802b74:	10000a15 	stw	zero,40(r2)
    d->_DDDpacemake2_local__Atrig3 = 0;
  802b78:	e0bffc17 	ldw	r2,-16(fp)
  802b7c:	10001cc5 	stb	zero,115(r2)
    d->_DDDpacemake2_local__Atrig4 = 0;
  802b80:	e0bffc17 	ldw	r2,-16(fp)
  802b84:	10001d05 	stb	zero,116(r2)
  }
  d->_g62 = d->_pg55;
  802b88:	e0bffc17 	ldw	r2,-16(fp)
  802b8c:	10c05503 	ldbu	r3,340(r2)
  802b90:	e0bffc17 	ldw	r2,-16(fp)
  802b94:	10c02ac5 	stb	r3,171(r2)
  d->_g47 = d->_pg58;
  802b98:	e0bffc17 	ldw	r2,-16(fp)
  802b9c:	10c05543 	ldbu	r3,341(r2)
  802ba0:	e0bffc17 	ldw	r2,-16(fp)
  802ba4:	10c027c5 	stb	r3,159(r2)
  d->_g59 = d->_g41 || d->_g62 || d->_g47;
  802ba8:	e0bffc17 	ldw	r2,-16(fp)
  802bac:	10802703 	ldbu	r2,156(r2)
  802bb0:	10803fcc 	andi	r2,r2,255
  802bb4:	1080201c 	xori	r2,r2,128
  802bb8:	10bfe004 	addi	r2,r2,-128
  802bbc:	10000c1e 	bne	r2,zero,802bf0 <logic+0x21b8>
  802bc0:	e0bffc17 	ldw	r2,-16(fp)
  802bc4:	10802ac3 	ldbu	r2,171(r2)
  802bc8:	10803fcc 	andi	r2,r2,255
  802bcc:	1080201c 	xori	r2,r2,128
  802bd0:	10bfe004 	addi	r2,r2,-128
  802bd4:	1000061e 	bne	r2,zero,802bf0 <logic+0x21b8>
  802bd8:	e0bffc17 	ldw	r2,-16(fp)
  802bdc:	108027c3 	ldbu	r2,159(r2)
  802be0:	10803fcc 	andi	r2,r2,255
  802be4:	1080201c 	xori	r2,r2,128
  802be8:	10bfe004 	addi	r2,r2,-128
  802bec:	10000226 	beq	r2,zero,802bf8 <logic+0x21c0>
  802bf0:	00800044 	movi	r2,1
  802bf4:	00000106 	br	802bfc <logic+0x21c4>
  802bf8:	0005883a 	mov	r2,zero
  802bfc:	1007883a 	mov	r3,r2
  802c00:	e0bffc17 	ldw	r2,-16(fp)
  802c04:	10c02a85 	stb	r3,170(r2)
  d->_cg52 = d->AEI_counter < d->AEI_DEADLINE;
  802c08:	e0bffc17 	ldw	r2,-16(fp)
  802c0c:	14000917 	ldw	r16,36(r2)
  802c10:	14400a17 	ldw	r17,40(r2)
  802c14:	e0bffc17 	ldw	r2,-16(fp)
  802c18:	10800217 	ldw	r2,8(r2)
  802c1c:	1009883a 	mov	r4,r2
  802c20:	08077600 	call	807760 <__floatsidf>
  802c24:	1009883a 	mov	r4,r2
  802c28:	180b883a 	mov	r5,r3
  802c2c:	04800044 	movi	r18,1
  802c30:	200d883a 	mov	r6,r4
  802c34:	280f883a 	mov	r7,r5
  802c38:	8009883a 	mov	r4,r16
  802c3c:	880b883a 	mov	r5,r17
  802c40:	08066580 	call	806658 <__ledf2>
  802c44:	10000116 	blt	r2,zero,802c4c <logic+0x2214>
  802c48:	0025883a 	mov	r18,zero
  802c4c:	9007883a 	mov	r3,r18
  802c50:	e0bffc17 	ldw	r2,-16(fp)
  802c54:	10c04345 	stb	r3,269(r2)
  d->_g56 = d->_g59 && !d->_cg52;
  802c58:	e0bffc17 	ldw	r2,-16(fp)
  802c5c:	10802a83 	ldbu	r2,170(r2)
  802c60:	10803fcc 	andi	r2,r2,255
  802c64:	1080201c 	xori	r2,r2,128
  802c68:	10bfe004 	addi	r2,r2,-128
  802c6c:	10000826 	beq	r2,zero,802c90 <logic+0x2258>
  802c70:	e0bffc17 	ldw	r2,-16(fp)
  802c74:	10804343 	ldbu	r2,269(r2)
  802c78:	10803fcc 	andi	r2,r2,255
  802c7c:	1080201c 	xori	r2,r2,128
  802c80:	10bfe004 	addi	r2,r2,-128
  802c84:	1000021e 	bne	r2,zero,802c90 <logic+0x2258>
  802c88:	00800044 	movi	r2,1
  802c8c:	00000106 	br	802c94 <logic+0x225c>
  802c90:	0005883a 	mov	r2,zero
  802c94:	1007883a 	mov	r3,r2
  802c98:	e0bffc17 	ldw	r2,-16(fp)
  802c9c:	10c029c5 	stb	r3,167(r2)
  d->_cg57 = d->_DDDpacemake2_local__Atrig3 || d->_DDDpacemake2_local__Atrig4;
  802ca0:	e0bffc17 	ldw	r2,-16(fp)
  802ca4:	10801cc3 	ldbu	r2,115(r2)
  802ca8:	10803fcc 	andi	r2,r2,255
  802cac:	1080201c 	xori	r2,r2,128
  802cb0:	10bfe004 	addi	r2,r2,-128
  802cb4:	1000061e 	bne	r2,zero,802cd0 <logic+0x2298>
  802cb8:	e0bffc17 	ldw	r2,-16(fp)
  802cbc:	10801d03 	ldbu	r2,116(r2)
  802cc0:	10803fcc 	andi	r2,r2,255
  802cc4:	1080201c 	xori	r2,r2,128
  802cc8:	10bfe004 	addi	r2,r2,-128
  802ccc:	10000226 	beq	r2,zero,802cd8 <logic+0x22a0>
  802cd0:	00800044 	movi	r2,1
  802cd4:	00000106 	br	802cdc <logic+0x22a4>
  802cd8:	0005883a 	mov	r2,zero
  802cdc:	1007883a 	mov	r3,r2
  802ce0:	e0bffc17 	ldw	r2,-16(fp)
  802ce4:	10c043c5 	stb	r3,271(r2)
  d->_g58 = d->_g56 && !d->_cg57;
  802ce8:	e0bffc17 	ldw	r2,-16(fp)
  802cec:	108029c3 	ldbu	r2,167(r2)
  802cf0:	10803fcc 	andi	r2,r2,255
  802cf4:	1080201c 	xori	r2,r2,128
  802cf8:	10bfe004 	addi	r2,r2,-128
  802cfc:	10000826 	beq	r2,zero,802d20 <logic+0x22e8>
  802d00:	e0bffc17 	ldw	r2,-16(fp)
  802d04:	108043c3 	ldbu	r2,271(r2)
  802d08:	10803fcc 	andi	r2,r2,255
  802d0c:	1080201c 	xori	r2,r2,128
  802d10:	10bfe004 	addi	r2,r2,-128
  802d14:	1000021e 	bne	r2,zero,802d20 <logic+0x22e8>
  802d18:	00800044 	movi	r2,1
  802d1c:	00000106 	br	802d24 <logic+0x22ec>
  802d20:	0005883a 	mov	r2,zero
  802d24:	1007883a 	mov	r3,r2
  802d28:	e0bffc17 	ldw	r2,-16(fp)
  802d2c:	10c02a45 	stb	r3,169(r2)
  d->_g52 = d->_g59 && d->_cg52;
  802d30:	e0bffc17 	ldw	r2,-16(fp)
  802d34:	10802a83 	ldbu	r2,170(r2)
  802d38:	10803fcc 	andi	r2,r2,255
  802d3c:	1080201c 	xori	r2,r2,128
  802d40:	10bfe004 	addi	r2,r2,-128
  802d44:	10000826 	beq	r2,zero,802d68 <logic+0x2330>
  802d48:	e0bffc17 	ldw	r2,-16(fp)
  802d4c:	10804343 	ldbu	r2,269(r2)
  802d50:	10803fcc 	andi	r2,r2,255
  802d54:	1080201c 	xori	r2,r2,128
  802d58:	10bfe004 	addi	r2,r2,-128
  802d5c:	10000226 	beq	r2,zero,802d68 <logic+0x2330>
  802d60:	00800044 	movi	r2,1
  802d64:	00000106 	br	802d6c <logic+0x2334>
  802d68:	0005883a 	mov	r2,zero
  802d6c:	1007883a 	mov	r3,r2
  802d70:	e0bffc17 	ldw	r2,-16(fp)
  802d74:	10c028c5 	stb	r3,163(r2)
  if (d->_g52) {
  802d78:	e0bffc17 	ldw	r2,-16(fp)
  802d7c:	108028c3 	ldbu	r2,163(r2)
  802d80:	10803fcc 	andi	r2,r2,255
  802d84:	1080201c 	xori	r2,r2,128
  802d88:	10bfe004 	addi	r2,r2,-128
  802d8c:	10003426 	beq	r2,zero,802e60 <logic+0x2428>
    d->sleepT = (d->sleepT < (d->AEI_DEADLINE - d->AEI_counter)) ? d->sleepT : (d->AEI_DEADLINE - d->AEI_counter);
  802d90:	e0bffc17 	ldw	r2,-16(fp)
  802d94:	14001617 	ldw	r16,88(r2)
  802d98:	14401717 	ldw	r17,92(r2)
  802d9c:	e0bffc17 	ldw	r2,-16(fp)
  802da0:	10800217 	ldw	r2,8(r2)
  802da4:	1009883a 	mov	r4,r2
  802da8:	08077600 	call	807760 <__floatsidf>
  802dac:	1011883a 	mov	r8,r2
  802db0:	1813883a 	mov	r9,r3
  802db4:	e13ffc17 	ldw	r4,-16(fp)
  802db8:	20800917 	ldw	r2,36(r4)
  802dbc:	20c00a17 	ldw	r3,40(r4)
  802dc0:	100d883a 	mov	r6,r2
  802dc4:	180f883a 	mov	r7,r3
  802dc8:	4009883a 	mov	r4,r8
  802dcc:	480b883a 	mov	r5,r9
  802dd0:	0806e640 	call	806e64 <__subdf3>
  802dd4:	1009883a 	mov	r4,r2
  802dd8:	180b883a 	mov	r5,r3
  802ddc:	2005883a 	mov	r2,r4
  802de0:	2807883a 	mov	r3,r5
  802de4:	100d883a 	mov	r6,r2
  802de8:	180f883a 	mov	r7,r3
  802dec:	8009883a 	mov	r4,r16
  802df0:	880b883a 	mov	r5,r17
  802df4:	08066580 	call	806658 <__ledf2>
  802df8:	1000040e 	bge	r2,zero,802e0c <logic+0x23d4>
  802dfc:	e13ffc17 	ldw	r4,-16(fp)
  802e00:	20801617 	ldw	r2,88(r4)
  802e04:	20c01717 	ldw	r3,92(r4)
  802e08:	00001206 	br	802e54 <logic+0x241c>
  802e0c:	e0bffc17 	ldw	r2,-16(fp)
  802e10:	10800217 	ldw	r2,8(r2)
  802e14:	1009883a 	mov	r4,r2
  802e18:	08077600 	call	807760 <__floatsidf>
  802e1c:	1011883a 	mov	r8,r2
  802e20:	1813883a 	mov	r9,r3
  802e24:	e13ffc17 	ldw	r4,-16(fp)
  802e28:	20800917 	ldw	r2,36(r4)
  802e2c:	20c00a17 	ldw	r3,40(r4)
  802e30:	100d883a 	mov	r6,r2
  802e34:	180f883a 	mov	r7,r3
  802e38:	4009883a 	mov	r4,r8
  802e3c:	480b883a 	mov	r5,r9
  802e40:	0806e640 	call	806e64 <__subdf3>
  802e44:	1009883a 	mov	r4,r2
  802e48:	180b883a 	mov	r5,r3
  802e4c:	2005883a 	mov	r2,r4
  802e50:	2807883a 	mov	r3,r5
  802e54:	e13ffc17 	ldw	r4,-16(fp)
  802e58:	20801615 	stw	r2,88(r4)
  802e5c:	20c01715 	stw	r3,92(r4)
  }
  d->_cg53 = d->_DDDpacemake2_local__Atrig3 || d->_DDDpacemake2_local__Atrig4;
  802e60:	e0bffc17 	ldw	r2,-16(fp)
  802e64:	10801cc3 	ldbu	r2,115(r2)
  802e68:	10803fcc 	andi	r2,r2,255
  802e6c:	1080201c 	xori	r2,r2,128
  802e70:	10bfe004 	addi	r2,r2,-128
  802e74:	1000061e 	bne	r2,zero,802e90 <logic+0x2458>
  802e78:	e0bffc17 	ldw	r2,-16(fp)
  802e7c:	10801d03 	ldbu	r2,116(r2)
  802e80:	10803fcc 	andi	r2,r2,255
  802e84:	1080201c 	xori	r2,r2,128
  802e88:	10bfe004 	addi	r2,r2,-128
  802e8c:	10000226 	beq	r2,zero,802e98 <logic+0x2460>
  802e90:	00800044 	movi	r2,1
  802e94:	00000106 	br	802e9c <logic+0x2464>
  802e98:	0005883a 	mov	r2,zero
  802e9c:	1007883a 	mov	r3,r2
  802ea0:	e0bffc17 	ldw	r2,-16(fp)
  802ea4:	10c04385 	stb	r3,270(r2)
  d->_g55 = d->_g52 && !d->_cg53;
  802ea8:	e0bffc17 	ldw	r2,-16(fp)
  802eac:	108028c3 	ldbu	r2,163(r2)
  802eb0:	10803fcc 	andi	r2,r2,255
  802eb4:	1080201c 	xori	r2,r2,128
  802eb8:	10bfe004 	addi	r2,r2,-128
  802ebc:	10000826 	beq	r2,zero,802ee0 <logic+0x24a8>
  802ec0:	e0bffc17 	ldw	r2,-16(fp)
  802ec4:	10804383 	ldbu	r2,270(r2)
  802ec8:	10803fcc 	andi	r2,r2,255
  802ecc:	1080201c 	xori	r2,r2,128
  802ed0:	10bfe004 	addi	r2,r2,-128
  802ed4:	1000021e 	bne	r2,zero,802ee0 <logic+0x24a8>
  802ed8:	00800044 	movi	r2,1
  802edc:	00000106 	br	802ee4 <logic+0x24ac>
  802ee0:	0005883a 	mov	r2,zero
  802ee4:	1007883a 	mov	r3,r2
  802ee8:	e0bffc17 	ldw	r2,-16(fp)
  802eec:	10c02985 	stb	r3,166(r2)
  d->_g54_e1 = !(d->_g58 || d->_g55);
  802ef0:	e0bffc17 	ldw	r2,-16(fp)
  802ef4:	10802a43 	ldbu	r2,169(r2)
  802ef8:	10803fcc 	andi	r2,r2,255
  802efc:	1080201c 	xori	r2,r2,128
  802f00:	10bfe004 	addi	r2,r2,-128
  802f04:	1000081e 	bne	r2,zero,802f28 <logic+0x24f0>
  802f08:	e0bffc17 	ldw	r2,-16(fp)
  802f0c:	10802983 	ldbu	r2,166(r2)
  802f10:	10803fcc 	andi	r2,r2,255
  802f14:	1080201c 	xori	r2,r2,128
  802f18:	10bfe004 	addi	r2,r2,-128
  802f1c:	1000021e 	bne	r2,zero,802f28 <logic+0x24f0>
  802f20:	00800044 	movi	r2,1
  802f24:	00000106 	br	802f2c <logic+0x24f4>
  802f28:	0005883a 	mov	r2,zero
  802f2c:	1007883a 	mov	r3,r2
  802f30:	e0bffc17 	ldw	r2,-16(fp)
  802f34:	10c04dc5 	stb	r3,311(r2)
  d->_g57 = d->_g52 && d->_cg53 || d->_g56 && d->_cg57;
  802f38:	e0bffc17 	ldw	r2,-16(fp)
  802f3c:	108028c3 	ldbu	r2,163(r2)
  802f40:	10803fcc 	andi	r2,r2,255
  802f44:	1080201c 	xori	r2,r2,128
  802f48:	10bfe004 	addi	r2,r2,-128
  802f4c:	10000626 	beq	r2,zero,802f68 <logic+0x2530>
  802f50:	e0bffc17 	ldw	r2,-16(fp)
  802f54:	10804383 	ldbu	r2,270(r2)
  802f58:	10803fcc 	andi	r2,r2,255
  802f5c:	1080201c 	xori	r2,r2,128
  802f60:	10bfe004 	addi	r2,r2,-128
  802f64:	10000c1e 	bne	r2,zero,802f98 <logic+0x2560>
  802f68:	e0bffc17 	ldw	r2,-16(fp)
  802f6c:	108029c3 	ldbu	r2,167(r2)
  802f70:	10803fcc 	andi	r2,r2,255
  802f74:	1080201c 	xori	r2,r2,128
  802f78:	10bfe004 	addi	r2,r2,-128
  802f7c:	10000826 	beq	r2,zero,802fa0 <logic+0x2568>
  802f80:	e0bffc17 	ldw	r2,-16(fp)
  802f84:	108043c3 	ldbu	r2,271(r2)
  802f88:	10803fcc 	andi	r2,r2,255
  802f8c:	1080201c 	xori	r2,r2,128
  802f90:	10bfe004 	addi	r2,r2,-128
  802f94:	10000226 	beq	r2,zero,802fa0 <logic+0x2568>
  802f98:	00800044 	movi	r2,1
  802f9c:	00000106 	br	802fa4 <logic+0x256c>
  802fa0:	0005883a 	mov	r2,zero
  802fa4:	1007883a 	mov	r3,r2
  802fa8:	e0bffc17 	ldw	r2,-16(fp)
  802fac:	10c02a05 	stb	r3,168(r2)
  d->_g53 = d->_g41 || d->_g6 && !d->_cg65;
  802fb0:	e0bffc17 	ldw	r2,-16(fp)
  802fb4:	10802703 	ldbu	r2,156(r2)
  802fb8:	10803fcc 	andi	r2,r2,255
  802fbc:	1080201c 	xori	r2,r2,128
  802fc0:	10bfe004 	addi	r2,r2,-128
  802fc4:	10000c1e 	bne	r2,zero,802ff8 <logic+0x25c0>
  802fc8:	e0bffc17 	ldw	r2,-16(fp)
  802fcc:	10801f83 	ldbu	r2,126(r2)
  802fd0:	10803fcc 	andi	r2,r2,255
  802fd4:	1080201c 	xori	r2,r2,128
  802fd8:	10bfe004 	addi	r2,r2,-128
  802fdc:	10000826 	beq	r2,zero,803000 <logic+0x25c8>
  802fe0:	e0bffc17 	ldw	r2,-16(fp)
  802fe4:	10804403 	ldbu	r2,272(r2)
  802fe8:	10803fcc 	andi	r2,r2,255
  802fec:	1080201c 	xori	r2,r2,128
  802ff0:	10bfe004 	addi	r2,r2,-128
  802ff4:	1000021e 	bne	r2,zero,803000 <logic+0x25c8>
  802ff8:	00800044 	movi	r2,1
  802ffc:	00000106 	br	803004 <logic+0x25cc>
  803000:	0005883a 	mov	r2,zero
  803004:	1007883a 	mov	r3,r2
  803008:	e0bffc17 	ldw	r2,-16(fp)
  80300c:	10c02905 	stb	r3,164(r2)
  d->_g65 = !d->_g53;
  803010:	e0bffc17 	ldw	r2,-16(fp)
  803014:	10802903 	ldbu	r2,164(r2)
  803018:	10803fcc 	andi	r2,r2,255
  80301c:	1080201c 	xori	r2,r2,128
  803020:	10bfe004 	addi	r2,r2,-128
  803024:	1005003a 	cmpeq	r2,r2,zero
  803028:	1007883a 	mov	r3,r2
  80302c:	e0bffc17 	ldw	r2,-16(fp)
  803030:	10c02b85 	stb	r3,174(r2)
  d->_g50 = d->_g43 || d->_g36;
  803034:	e0bffc17 	ldw	r2,-16(fp)
  803038:	10802783 	ldbu	r2,158(r2)
  80303c:	10803fcc 	andi	r2,r2,255
  803040:	1080201c 	xori	r2,r2,128
  803044:	10bfe004 	addi	r2,r2,-128
  803048:	1000061e 	bne	r2,zero,803064 <logic+0x262c>
  80304c:	e0bffc17 	ldw	r2,-16(fp)
  803050:	10802603 	ldbu	r2,152(r2)
  803054:	10803fcc 	andi	r2,r2,255
  803058:	1080201c 	xori	r2,r2,128
  80305c:	10bfe004 	addi	r2,r2,-128
  803060:	10000226 	beq	r2,zero,80306c <logic+0x2634>
  803064:	00800044 	movi	r2,1
  803068:	00000106 	br	803070 <logic+0x2638>
  80306c:	0005883a 	mov	r2,zero
  803070:	1007883a 	mov	r3,r2
  803074:	e0bffc17 	ldw	r2,-16(fp)
  803078:	10c02885 	stb	r3,162(r2)
  d->_g66 = (d->_g54_e1 || d->_g57) && (d->_g65 || d->_g50) && (d->_g57 || d->_g50);
  80307c:	e0bffc17 	ldw	r2,-16(fp)
  803080:	10804dc3 	ldbu	r2,311(r2)
  803084:	10803fcc 	andi	r2,r2,255
  803088:	1080201c 	xori	r2,r2,128
  80308c:	10bfe004 	addi	r2,r2,-128
  803090:	1000061e 	bne	r2,zero,8030ac <logic+0x2674>
  803094:	e0bffc17 	ldw	r2,-16(fp)
  803098:	10802a03 	ldbu	r2,168(r2)
  80309c:	10803fcc 	andi	r2,r2,255
  8030a0:	1080201c 	xori	r2,r2,128
  8030a4:	10bfe004 	addi	r2,r2,-128
  8030a8:	10001a26 	beq	r2,zero,803114 <logic+0x26dc>
  8030ac:	e0bffc17 	ldw	r2,-16(fp)
  8030b0:	10802b83 	ldbu	r2,174(r2)
  8030b4:	10803fcc 	andi	r2,r2,255
  8030b8:	1080201c 	xori	r2,r2,128
  8030bc:	10bfe004 	addi	r2,r2,-128
  8030c0:	1000061e 	bne	r2,zero,8030dc <logic+0x26a4>
  8030c4:	e0bffc17 	ldw	r2,-16(fp)
  8030c8:	10802883 	ldbu	r2,162(r2)
  8030cc:	10803fcc 	andi	r2,r2,255
  8030d0:	1080201c 	xori	r2,r2,128
  8030d4:	10bfe004 	addi	r2,r2,-128
  8030d8:	10000e26 	beq	r2,zero,803114 <logic+0x26dc>
  8030dc:	e0bffc17 	ldw	r2,-16(fp)
  8030e0:	10802a03 	ldbu	r2,168(r2)
  8030e4:	10803fcc 	andi	r2,r2,255
  8030e8:	1080201c 	xori	r2,r2,128
  8030ec:	10bfe004 	addi	r2,r2,-128
  8030f0:	1000061e 	bne	r2,zero,80310c <logic+0x26d4>
  8030f4:	e0bffc17 	ldw	r2,-16(fp)
  8030f8:	10802883 	ldbu	r2,162(r2)
  8030fc:	10803fcc 	andi	r2,r2,255
  803100:	1080201c 	xori	r2,r2,128
  803104:	10bfe004 	addi	r2,r2,-128
  803108:	10000226 	beq	r2,zero,803114 <logic+0x26dc>
  80310c:	00800044 	movi	r2,1
  803110:	00000106 	br	803118 <logic+0x26e0>
  803114:	0005883a 	mov	r2,zero
  803118:	1007883a 	mov	r3,r2
  80311c:	e0bffc17 	ldw	r2,-16(fp)
  803120:	10c02bc5 	stb	r3,175(r2)
  d->_cg67 = d->_DDDpacemake2_local__Atrig3;
  803124:	e0bffc17 	ldw	r2,-16(fp)
  803128:	10c01cc3 	ldbu	r3,115(r2)
  80312c:	e0bffc17 	ldw	r2,-16(fp)
  803130:	10c04485 	stb	r3,274(r2)
  d->_g63 = d->_g66 && d->_cg67;
  803134:	e0bffc17 	ldw	r2,-16(fp)
  803138:	10802bc3 	ldbu	r2,175(r2)
  80313c:	10803fcc 	andi	r2,r2,255
  803140:	1080201c 	xori	r2,r2,128
  803144:	10bfe004 	addi	r2,r2,-128
  803148:	10000826 	beq	r2,zero,80316c <logic+0x2734>
  80314c:	e0bffc17 	ldw	r2,-16(fp)
  803150:	10804483 	ldbu	r2,274(r2)
  803154:	10803fcc 	andi	r2,r2,255
  803158:	1080201c 	xori	r2,r2,128
  80315c:	10bfe004 	addi	r2,r2,-128
  803160:	10000226 	beq	r2,zero,80316c <logic+0x2734>
  803164:	00800044 	movi	r2,1
  803168:	00000106 	br	803170 <logic+0x2738>
  80316c:	0005883a 	mov	r2,zero
  803170:	1007883a 	mov	r3,r2
  803174:	e0bffc17 	ldw	r2,-16(fp)
  803178:	10c02b05 	stb	r3,172(r2)
  if (d->_g63) {
  80317c:	e0bffc17 	ldw	r2,-16(fp)
  803180:	10802b03 	ldbu	r2,172(r2)
  803184:	10803fcc 	andi	r2,r2,255
  803188:	1080201c 	xori	r2,r2,128
  80318c:	10bfe004 	addi	r2,r2,-128
  803190:	10000426 	beq	r2,zero,8031a4 <logic+0x276c>
    d->_DDDpacemake2_local_AEI_state = 0;
  803194:	e0bffc17 	ldw	r2,-16(fp)
  803198:	10001845 	stb	zero,97(r2)
    d->AP = 0;
  80319c:	e0bffc17 	ldw	r2,-16(fp)
  8031a0:	10001305 	stb	zero,76(r2)
  }
  d->_g64 = d->_g66 && !d->_cg67;
  8031a4:	e0bffc17 	ldw	r2,-16(fp)
  8031a8:	10802bc3 	ldbu	r2,175(r2)
  8031ac:	10803fcc 	andi	r2,r2,255
  8031b0:	1080201c 	xori	r2,r2,128
  8031b4:	10bfe004 	addi	r2,r2,-128
  8031b8:	10000826 	beq	r2,zero,8031dc <logic+0x27a4>
  8031bc:	e0bffc17 	ldw	r2,-16(fp)
  8031c0:	10804483 	ldbu	r2,274(r2)
  8031c4:	10803fcc 	andi	r2,r2,255
  8031c8:	1080201c 	xori	r2,r2,128
  8031cc:	10bfe004 	addi	r2,r2,-128
  8031d0:	1000021e 	bne	r2,zero,8031dc <logic+0x27a4>
  8031d4:	00800044 	movi	r2,1
  8031d8:	00000106 	br	8031e0 <logic+0x27a8>
  8031dc:	0005883a 	mov	r2,zero
  8031e0:	1007883a 	mov	r3,r2
  8031e4:	e0bffc17 	ldw	r2,-16(fp)
  8031e8:	10c02b45 	stb	r3,173(r2)
  if (d->_g64) {
  8031ec:	e0bffc17 	ldw	r2,-16(fp)
  8031f0:	10802b43 	ldbu	r2,173(r2)
  8031f4:	10803fcc 	andi	r2,r2,255
  8031f8:	1080201c 	xori	r2,r2,128
  8031fc:	10bfe004 	addi	r2,r2,-128
  803200:	10000b26 	beq	r2,zero,803230 <logic+0x27f8>
    d->AP = 1;
  803204:	e0bffc17 	ldw	r2,-16(fp)
  803208:	00c00044 	movi	r3,1
  80320c:	10c01305 	stb	r3,76(r2)
    d->_DDDpacemake2_local_AP_temp |= 1;
  803210:	e0bffc17 	ldw	r2,-16(fp)
  803214:	10801a03 	ldbu	r2,104(r2)
  803218:	10800054 	ori	r2,r2,1
  80321c:	1007883a 	mov	r3,r2
  803220:	e0bffc17 	ldw	r2,-16(fp)
  803224:	10c01a05 	stb	r3,104(r2)
    d->_DDDpacemake2_local_AEI_state = 0;
  803228:	e0bffc17 	ldw	r2,-16(fp)
  80322c:	10001845 	stb	zero,97(r2)
  }
  d->_g54_e1 = d->_GO || d->_g40 || d->_g63 || d->_g64 || d->_g37 && !d->_cg49;
  803230:	e0bffc17 	ldw	r2,-16(fp)
  803234:	10803ec3 	ldbu	r2,251(r2)
  803238:	10803fcc 	andi	r2,r2,255
  80323c:	1080201c 	xori	r2,r2,128
  803240:	10bfe004 	addi	r2,r2,-128
  803244:	10001e1e 	bne	r2,zero,8032c0 <logic+0x2888>
  803248:	e0bffc17 	ldw	r2,-16(fp)
  80324c:	108026c3 	ldbu	r2,155(r2)
  803250:	10803fcc 	andi	r2,r2,255
  803254:	1080201c 	xori	r2,r2,128
  803258:	10bfe004 	addi	r2,r2,-128
  80325c:	1000181e 	bne	r2,zero,8032c0 <logic+0x2888>
  803260:	e0bffc17 	ldw	r2,-16(fp)
  803264:	10802b03 	ldbu	r2,172(r2)
  803268:	10803fcc 	andi	r2,r2,255
  80326c:	1080201c 	xori	r2,r2,128
  803270:	10bfe004 	addi	r2,r2,-128
  803274:	1000121e 	bne	r2,zero,8032c0 <logic+0x2888>
  803278:	e0bffc17 	ldw	r2,-16(fp)
  80327c:	10802b43 	ldbu	r2,173(r2)
  803280:	10803fcc 	andi	r2,r2,255
  803284:	1080201c 	xori	r2,r2,128
  803288:	10bfe004 	addi	r2,r2,-128
  80328c:	10000c1e 	bne	r2,zero,8032c0 <logic+0x2888>
  803290:	e0bffc17 	ldw	r2,-16(fp)
  803294:	10802643 	ldbu	r2,153(r2)
  803298:	10803fcc 	andi	r2,r2,255
  80329c:	1080201c 	xori	r2,r2,128
  8032a0:	10bfe004 	addi	r2,r2,-128
  8032a4:	10000826 	beq	r2,zero,8032c8 <logic+0x2890>
  8032a8:	e0bffc17 	ldw	r2,-16(fp)
  8032ac:	108042c3 	ldbu	r2,267(r2)
  8032b0:	10803fcc 	andi	r2,r2,255
  8032b4:	1080201c 	xori	r2,r2,128
  8032b8:	10bfe004 	addi	r2,r2,-128
  8032bc:	1000021e 	bne	r2,zero,8032c8 <logic+0x2890>
  8032c0:	00800044 	movi	r2,1
  8032c4:	00000106 	br	8032cc <logic+0x2894>
  8032c8:	0005883a 	mov	r2,zero
  8032cc:	1007883a 	mov	r3,r2
  8032d0:	e0bffc17 	ldw	r2,-16(fp)
  8032d4:	10c04dc5 	stb	r3,311(r2)
  d->_g54 = d->_pg94;
  8032d8:	e0bffc17 	ldw	r2,-16(fp)
  8032dc:	10c05583 	ldbu	r3,342(r2)
  8032e0:	e0bffc17 	ldw	r2,-16(fp)
  8032e4:	10c02945 	stb	r3,165(r2)
  d->_g64_e2 = d->_pg98;
  8032e8:	e0bffc17 	ldw	r2,-16(fp)
  8032ec:	10c055c3 	ldbu	r3,343(r2)
  8032f0:	e0bffc17 	ldw	r2,-16(fp)
  8032f4:	10c04e05 	stb	r3,312(r2)
  d->_g67 = !(d->_g54 || d->_g64_e2);
  8032f8:	e0bffc17 	ldw	r2,-16(fp)
  8032fc:	10802943 	ldbu	r2,165(r2)
  803300:	10803fcc 	andi	r2,r2,255
  803304:	1080201c 	xori	r2,r2,128
  803308:	10bfe004 	addi	r2,r2,-128
  80330c:	1000081e 	bne	r2,zero,803330 <logic+0x28f8>
  803310:	e0bffc17 	ldw	r2,-16(fp)
  803314:	10804e03 	ldbu	r2,312(r2)
  803318:	10803fcc 	andi	r2,r2,255
  80331c:	1080201c 	xori	r2,r2,128
  803320:	10bfe004 	addi	r2,r2,-128
  803324:	1000021e 	bne	r2,zero,803330 <logic+0x28f8>
  803328:	00800044 	movi	r2,1
  80332c:	00000106 	br	803334 <logic+0x28fc>
  803330:	0005883a 	mov	r2,zero
  803334:	1007883a 	mov	r3,r2
  803338:	e0bffc17 	ldw	r2,-16(fp)
  80333c:	10c02c05 	stb	r3,176(r2)
  d->_g48 = d->_pg95;
  803340:	e0bffc17 	ldw	r2,-16(fp)
  803344:	10c05603 	ldbu	r3,344(r2)
  803348:	e0bffc17 	ldw	r2,-16(fp)
  80334c:	10c02805 	stb	r3,160(r2)
  d->_g49 = d->_g48 && d->AS;
  803350:	e0bffc17 	ldw	r2,-16(fp)
  803354:	10802803 	ldbu	r2,160(r2)
  803358:	10803fcc 	andi	r2,r2,255
  80335c:	1080201c 	xori	r2,r2,128
  803360:	10bfe004 	addi	r2,r2,-128
  803364:	10000826 	beq	r2,zero,803388 <logic+0x2950>
  803368:	e0bffc17 	ldw	r2,-16(fp)
  80336c:	10800603 	ldbu	r2,24(r2)
  803370:	10803fcc 	andi	r2,r2,255
  803374:	1080201c 	xori	r2,r2,128
  803378:	10bfe004 	addi	r2,r2,-128
  80337c:	10000226 	beq	r2,zero,803388 <logic+0x2950>
  803380:	00800044 	movi	r2,1
  803384:	00000106 	br	80338c <logic+0x2954>
  803388:	0005883a 	mov	r2,zero
  80338c:	1007883a 	mov	r3,r2
  803390:	e0bffc17 	ldw	r2,-16(fp)
  803394:	10c02845 	stb	r3,161(r2)
  if (d->_g49) {
  803398:	e0bffc17 	ldw	r2,-16(fp)
  80339c:	10802843 	ldbu	r2,161(r2)
  8033a0:	10803fcc 	andi	r2,r2,255
  8033a4:	1080201c 	xori	r2,r2,128
  8033a8:	10bfe004 	addi	r2,r2,-128
  8033ac:	10000326 	beq	r2,zero,8033bc <logic+0x2984>
    d->_DDDpacemake2_local__Atrig5 = 1;
  8033b0:	e0bffc17 	ldw	r2,-16(fp)
  8033b4:	00c00044 	movi	r3,1
  8033b8:	10c01d45 	stb	r3,117(r2)
  }
  d->_g68 = d->_pg149;
  8033bc:	e0bffc17 	ldw	r2,-16(fp)
  8033c0:	10c05643 	ldbu	r3,345(r2)
  8033c4:	e0bffc17 	ldw	r2,-16(fp)
  8033c8:	10c02c45 	stb	r3,177(r2)
  if (d->_g68) {
  8033cc:	e0bffc17 	ldw	r2,-16(fp)
  8033d0:	10802c43 	ldbu	r2,177(r2)
  8033d4:	10803fcc 	andi	r2,r2,255
  8033d8:	1080201c 	xori	r2,r2,128
  8033dc:	10bfe004 	addi	r2,r2,-128
  8033e0:	10001226 	beq	r2,zero,80342c <logic+0x29f4>
    d->PVARP_counter += d->deltaT;
  8033e4:	e13ffc17 	ldw	r4,-16(fp)
  8033e8:	20800b17 	ldw	r2,44(r4)
  8033ec:	20c00c17 	ldw	r3,48(r4)
  8033f0:	e1bffc17 	ldw	r6,-16(fp)
  8033f4:	31001417 	ldw	r4,80(r6)
  8033f8:	31401517 	ldw	r5,84(r6)
  8033fc:	200d883a 	mov	r6,r4
  803400:	280f883a 	mov	r7,r5
  803404:	1009883a 	mov	r4,r2
  803408:	180b883a 	mov	r5,r3
  80340c:	0805cd00 	call	805cd0 <__adddf3>
  803410:	1009883a 	mov	r4,r2
  803414:	180b883a 	mov	r5,r3
  803418:	2005883a 	mov	r2,r4
  80341c:	2807883a 	mov	r3,r5
  803420:	e13ffc17 	ldw	r4,-16(fp)
  803424:	20800b15 	stw	r2,44(r4)
  803428:	20c00c15 	stw	r3,48(r4)
  }
  d->_g69 = d->_g48 && !d->AS;
  80342c:	e0bffc17 	ldw	r2,-16(fp)
  803430:	10802803 	ldbu	r2,160(r2)
  803434:	10803fcc 	andi	r2,r2,255
  803438:	1080201c 	xori	r2,r2,128
  80343c:	10bfe004 	addi	r2,r2,-128
  803440:	10000826 	beq	r2,zero,803464 <logic+0x2a2c>
  803444:	e0bffc17 	ldw	r2,-16(fp)
  803448:	10800603 	ldbu	r2,24(r2)
  80344c:	10803fcc 	andi	r2,r2,255
  803450:	1080201c 	xori	r2,r2,128
  803454:	10bfe004 	addi	r2,r2,-128
  803458:	1000021e 	bne	r2,zero,803464 <logic+0x2a2c>
  80345c:	00800044 	movi	r2,1
  803460:	00000106 	br	803468 <logic+0x2a30>
  803464:	0005883a 	mov	r2,zero
  803468:	1007883a 	mov	r3,r2
  80346c:	e0bffc17 	ldw	r2,-16(fp)
  803470:	10c02c85 	stb	r3,178(r2)
  d->_cg92 = d->PVARP_counter >= d->PVARP_DEADLINE;
  803474:	e0bffc17 	ldw	r2,-16(fp)
  803478:	14000b17 	ldw	r16,44(r2)
  80347c:	14400c17 	ldw	r17,48(r2)
  803480:	e0bffc17 	ldw	r2,-16(fp)
  803484:	10800417 	ldw	r2,16(r2)
  803488:	1009883a 	mov	r4,r2
  80348c:	08077600 	call	807760 <__floatsidf>
  803490:	1009883a 	mov	r4,r2
  803494:	180b883a 	mov	r5,r3
  803498:	04800044 	movi	r18,1
  80349c:	200d883a 	mov	r6,r4
  8034a0:	280f883a 	mov	r7,r5
  8034a4:	8009883a 	mov	r4,r16
  8034a8:	880b883a 	mov	r5,r17
  8034ac:	080657c0 	call	80657c <__gedf2>
  8034b0:	1000010e 	bge	r2,zero,8034b8 <logic+0x2a80>
  8034b4:	0025883a 	mov	r18,zero
  8034b8:	9007883a 	mov	r3,r18
  8034bc:	e0bffc17 	ldw	r2,-16(fp)
  8034c0:	10c046c5 	stb	r3,283(r2)
  d->_g93 = d->_g69 && d->_cg92;
  8034c4:	e0bffc17 	ldw	r2,-16(fp)
  8034c8:	10802c83 	ldbu	r2,178(r2)
  8034cc:	10803fcc 	andi	r2,r2,255
  8034d0:	1080201c 	xori	r2,r2,128
  8034d4:	10bfe004 	addi	r2,r2,-128
  8034d8:	10000826 	beq	r2,zero,8034fc <logic+0x2ac4>
  8034dc:	e0bffc17 	ldw	r2,-16(fp)
  8034e0:	108046c3 	ldbu	r2,283(r2)
  8034e4:	10803fcc 	andi	r2,r2,255
  8034e8:	1080201c 	xori	r2,r2,128
  8034ec:	10bfe004 	addi	r2,r2,-128
  8034f0:	10000226 	beq	r2,zero,8034fc <logic+0x2ac4>
  8034f4:	00800044 	movi	r2,1
  8034f8:	00000106 	br	803500 <logic+0x2ac8>
  8034fc:	0005883a 	mov	r2,zero
  803500:	1007883a 	mov	r3,r2
  803504:	e0bffc17 	ldw	r2,-16(fp)
  803508:	10c03085 	stb	r3,194(r2)
  if (d->_g93) {
  80350c:	e0bffc17 	ldw	r2,-16(fp)
  803510:	10803083 	ldbu	r2,194(r2)
  803514:	10803fcc 	andi	r2,r2,255
  803518:	1080201c 	xori	r2,r2,128
  80351c:	10bfe004 	addi	r2,r2,-128
  803520:	10000326 	beq	r2,zero,803530 <logic+0x2af8>
    d->_DDDpacemake2_local__Atrig6 = 1;
  803524:	e0bffc17 	ldw	r2,-16(fp)
  803528:	00c00044 	movi	r3,1
  80352c:	10c01d85 	stb	r3,118(r2)
  }
  d->_g85 = d->_g64_e2 || d->_g54;
  803530:	e0bffc17 	ldw	r2,-16(fp)
  803534:	10804e03 	ldbu	r2,312(r2)
  803538:	10803fcc 	andi	r2,r2,255
  80353c:	1080201c 	xori	r2,r2,128
  803540:	10bfe004 	addi	r2,r2,-128
  803544:	1000061e 	bne	r2,zero,803560 <logic+0x2b28>
  803548:	e0bffc17 	ldw	r2,-16(fp)
  80354c:	10802943 	ldbu	r2,165(r2)
  803550:	10803fcc 	andi	r2,r2,255
  803554:	1080201c 	xori	r2,r2,128
  803558:	10bfe004 	addi	r2,r2,-128
  80355c:	10000226 	beq	r2,zero,803568 <logic+0x2b30>
  803560:	00800044 	movi	r2,1
  803564:	00000106 	br	80356c <logic+0x2b34>
  803568:	0005883a 	mov	r2,zero
  80356c:	1007883a 	mov	r3,r2
  803570:	e0bffc17 	ldw	r2,-16(fp)
  803574:	10c02f05 	stb	r3,188(r2)
  d->_cg80 = d->PVARP_counter < d->PVARP_DEADLINE;
  803578:	e0bffc17 	ldw	r2,-16(fp)
  80357c:	14000b17 	ldw	r16,44(r2)
  803580:	14400c17 	ldw	r17,48(r2)
  803584:	e0bffc17 	ldw	r2,-16(fp)
  803588:	10800417 	ldw	r2,16(r2)
  80358c:	1009883a 	mov	r4,r2
  803590:	08077600 	call	807760 <__floatsidf>
  803594:	1009883a 	mov	r4,r2
  803598:	180b883a 	mov	r5,r3
  80359c:	04800044 	movi	r18,1
  8035a0:	200d883a 	mov	r6,r4
  8035a4:	280f883a 	mov	r7,r5
  8035a8:	8009883a 	mov	r4,r16
  8035ac:	880b883a 	mov	r5,r17
  8035b0:	08066580 	call	806658 <__ledf2>
  8035b4:	10000116 	blt	r2,zero,8035bc <logic+0x2b84>
  8035b8:	0025883a 	mov	r18,zero
  8035bc:	9007883a 	mov	r3,r18
  8035c0:	e0bffc17 	ldw	r2,-16(fp)
  8035c4:	10c04605 	stb	r3,280(r2)
  d->_g79 = d->_g85 && d->_cg80;
  8035c8:	e0bffc17 	ldw	r2,-16(fp)
  8035cc:	10802f03 	ldbu	r2,188(r2)
  8035d0:	10803fcc 	andi	r2,r2,255
  8035d4:	1080201c 	xori	r2,r2,128
  8035d8:	10bfe004 	addi	r2,r2,-128
  8035dc:	10000826 	beq	r2,zero,803600 <logic+0x2bc8>
  8035e0:	e0bffc17 	ldw	r2,-16(fp)
  8035e4:	10804603 	ldbu	r2,280(r2)
  8035e8:	10803fcc 	andi	r2,r2,255
  8035ec:	1080201c 	xori	r2,r2,128
  8035f0:	10bfe004 	addi	r2,r2,-128
  8035f4:	10000226 	beq	r2,zero,803600 <logic+0x2bc8>
  8035f8:	00800044 	movi	r2,1
  8035fc:	00000106 	br	803604 <logic+0x2bcc>
  803600:	0005883a 	mov	r2,zero
  803604:	1007883a 	mov	r3,r2
  803608:	e0bffc17 	ldw	r2,-16(fp)
  80360c:	10c02dc5 	stb	r3,183(r2)
  if (d->_g79) {
  803610:	e0bffc17 	ldw	r2,-16(fp)
  803614:	10802dc3 	ldbu	r2,183(r2)
  803618:	10803fcc 	andi	r2,r2,255
  80361c:	1080201c 	xori	r2,r2,128
  803620:	10bfe004 	addi	r2,r2,-128
  803624:	10003426 	beq	r2,zero,8036f8 <logic+0x2cc0>
    d->sleepT = (d->sleepT < (d->PVARP_DEADLINE - d->PVARP_counter)) ? d->sleepT : (d->PVARP_DEADLINE - d->PVARP_counter);
  803628:	e0bffc17 	ldw	r2,-16(fp)
  80362c:	14001617 	ldw	r16,88(r2)
  803630:	14401717 	ldw	r17,92(r2)
  803634:	e0bffc17 	ldw	r2,-16(fp)
  803638:	10800417 	ldw	r2,16(r2)
  80363c:	1009883a 	mov	r4,r2
  803640:	08077600 	call	807760 <__floatsidf>
  803644:	1011883a 	mov	r8,r2
  803648:	1813883a 	mov	r9,r3
  80364c:	e13ffc17 	ldw	r4,-16(fp)
  803650:	20800b17 	ldw	r2,44(r4)
  803654:	20c00c17 	ldw	r3,48(r4)
  803658:	100d883a 	mov	r6,r2
  80365c:	180f883a 	mov	r7,r3
  803660:	4009883a 	mov	r4,r8
  803664:	480b883a 	mov	r5,r9
  803668:	0806e640 	call	806e64 <__subdf3>
  80366c:	1009883a 	mov	r4,r2
  803670:	180b883a 	mov	r5,r3
  803674:	2005883a 	mov	r2,r4
  803678:	2807883a 	mov	r3,r5
  80367c:	100d883a 	mov	r6,r2
  803680:	180f883a 	mov	r7,r3
  803684:	8009883a 	mov	r4,r16
  803688:	880b883a 	mov	r5,r17
  80368c:	08066580 	call	806658 <__ledf2>
  803690:	1000040e 	bge	r2,zero,8036a4 <logic+0x2c6c>
  803694:	e13ffc17 	ldw	r4,-16(fp)
  803698:	20801617 	ldw	r2,88(r4)
  80369c:	20c01717 	ldw	r3,92(r4)
  8036a0:	00001206 	br	8036ec <logic+0x2cb4>
  8036a4:	e0bffc17 	ldw	r2,-16(fp)
  8036a8:	10800417 	ldw	r2,16(r2)
  8036ac:	1009883a 	mov	r4,r2
  8036b0:	08077600 	call	807760 <__floatsidf>
  8036b4:	1011883a 	mov	r8,r2
  8036b8:	1813883a 	mov	r9,r3
  8036bc:	e13ffc17 	ldw	r4,-16(fp)
  8036c0:	20800b17 	ldw	r2,44(r4)
  8036c4:	20c00c17 	ldw	r3,48(r4)
  8036c8:	100d883a 	mov	r6,r2
  8036cc:	180f883a 	mov	r7,r3
  8036d0:	4009883a 	mov	r4,r8
  8036d4:	480b883a 	mov	r5,r9
  8036d8:	0806e640 	call	806e64 <__subdf3>
  8036dc:	1009883a 	mov	r4,r2
  8036e0:	180b883a 	mov	r5,r3
  8036e4:	2005883a 	mov	r2,r4
  8036e8:	2807883a 	mov	r3,r5
  8036ec:	e13ffc17 	ldw	r4,-16(fp)
  8036f0:	20801615 	stw	r2,88(r4)
  8036f4:	20c01715 	stw	r3,92(r4)
  }
  d->_cg81 = d->_DDDpacemake2_local__Atrig5 || d->_DDDpacemake2_local__Atrig6;
  8036f8:	e0bffc17 	ldw	r2,-16(fp)
  8036fc:	10801d43 	ldbu	r2,117(r2)
  803700:	10803fcc 	andi	r2,r2,255
  803704:	1080201c 	xori	r2,r2,128
  803708:	10bfe004 	addi	r2,r2,-128
  80370c:	1000061e 	bne	r2,zero,803728 <logic+0x2cf0>
  803710:	e0bffc17 	ldw	r2,-16(fp)
  803714:	10801d83 	ldbu	r2,118(r2)
  803718:	10803fcc 	andi	r2,r2,255
  80371c:	1080201c 	xori	r2,r2,128
  803720:	10bfe004 	addi	r2,r2,-128
  803724:	10000226 	beq	r2,zero,803730 <logic+0x2cf8>
  803728:	00800044 	movi	r2,1
  80372c:	00000106 	br	803734 <logic+0x2cfc>
  803730:	0005883a 	mov	r2,zero
  803734:	1007883a 	mov	r3,r2
  803738:	e0bffc17 	ldw	r2,-16(fp)
  80373c:	10c045c5 	stb	r3,279(r2)
  d->_g80 = d->_g85 && !d->_cg80;
  803740:	e0bffc17 	ldw	r2,-16(fp)
  803744:	10802f03 	ldbu	r2,188(r2)
  803748:	10803fcc 	andi	r2,r2,255
  80374c:	1080201c 	xori	r2,r2,128
  803750:	10bfe004 	addi	r2,r2,-128
  803754:	10000826 	beq	r2,zero,803778 <logic+0x2d40>
  803758:	e0bffc17 	ldw	r2,-16(fp)
  80375c:	10804603 	ldbu	r2,280(r2)
  803760:	10803fcc 	andi	r2,r2,255
  803764:	1080201c 	xori	r2,r2,128
  803768:	10bfe004 	addi	r2,r2,-128
  80376c:	1000021e 	bne	r2,zero,803778 <logic+0x2d40>
  803770:	00800044 	movi	r2,1
  803774:	00000106 	br	80377c <logic+0x2d44>
  803778:	0005883a 	mov	r2,zero
  80377c:	1007883a 	mov	r3,r2
  803780:	e0bffc17 	ldw	r2,-16(fp)
  803784:	10c02e05 	stb	r3,184(r2)
  d->_cg83 = d->_DDDpacemake2_local__Atrig5 || d->_DDDpacemake2_local__Atrig6;
  803788:	e0bffc17 	ldw	r2,-16(fp)
  80378c:	10801d43 	ldbu	r2,117(r2)
  803790:	10803fcc 	andi	r2,r2,255
  803794:	1080201c 	xori	r2,r2,128
  803798:	10bfe004 	addi	r2,r2,-128
  80379c:	1000061e 	bne	r2,zero,8037b8 <logic+0x2d80>
  8037a0:	e0bffc17 	ldw	r2,-16(fp)
  8037a4:	10801d83 	ldbu	r2,118(r2)
  8037a8:	10803fcc 	andi	r2,r2,255
  8037ac:	1080201c 	xori	r2,r2,128
  8037b0:	10bfe004 	addi	r2,r2,-128
  8037b4:	10000226 	beq	r2,zero,8037c0 <logic+0x2d88>
  8037b8:	00800044 	movi	r2,1
  8037bc:	00000106 	br	8037c4 <logic+0x2d8c>
  8037c0:	0005883a 	mov	r2,zero
  8037c4:	1007883a 	mov	r3,r2
  8037c8:	e0bffc17 	ldw	r2,-16(fp)
  8037cc:	10c04645 	stb	r3,281(r2)
  d->_g82 = d->_g79 && d->_cg81 || d->_g80 && d->_cg83;
  8037d0:	e0bffc17 	ldw	r2,-16(fp)
  8037d4:	10802dc3 	ldbu	r2,183(r2)
  8037d8:	10803fcc 	andi	r2,r2,255
  8037dc:	1080201c 	xori	r2,r2,128
  8037e0:	10bfe004 	addi	r2,r2,-128
  8037e4:	10000626 	beq	r2,zero,803800 <logic+0x2dc8>
  8037e8:	e0bffc17 	ldw	r2,-16(fp)
  8037ec:	108045c3 	ldbu	r2,279(r2)
  8037f0:	10803fcc 	andi	r2,r2,255
  8037f4:	1080201c 	xori	r2,r2,128
  8037f8:	10bfe004 	addi	r2,r2,-128
  8037fc:	10000c1e 	bne	r2,zero,803830 <logic+0x2df8>
  803800:	e0bffc17 	ldw	r2,-16(fp)
  803804:	10802e03 	ldbu	r2,184(r2)
  803808:	10803fcc 	andi	r2,r2,255
  80380c:	1080201c 	xori	r2,r2,128
  803810:	10bfe004 	addi	r2,r2,-128
  803814:	10000826 	beq	r2,zero,803838 <logic+0x2e00>
  803818:	e0bffc17 	ldw	r2,-16(fp)
  80381c:	10804643 	ldbu	r2,281(r2)
  803820:	10803fcc 	andi	r2,r2,255
  803824:	1080201c 	xori	r2,r2,128
  803828:	10bfe004 	addi	r2,r2,-128
  80382c:	10000226 	beq	r2,zero,803838 <logic+0x2e00>
  803830:	00800044 	movi	r2,1
  803834:	00000106 	br	80383c <logic+0x2e04>
  803838:	0005883a 	mov	r2,zero
  80383c:	1007883a 	mov	r3,r2
  803840:	e0bffc17 	ldw	r2,-16(fp)
  803844:	10c02e85 	stb	r3,186(r2)
  d->_g89 = !d->_g48;
  803848:	e0bffc17 	ldw	r2,-16(fp)
  80384c:	10802803 	ldbu	r2,160(r2)
  803850:	10803fcc 	andi	r2,r2,255
  803854:	1080201c 	xori	r2,r2,128
  803858:	10bfe004 	addi	r2,r2,-128
  80385c:	1005003a 	cmpeq	r2,r2,zero
  803860:	1007883a 	mov	r3,r2
  803864:	e0bffc17 	ldw	r2,-16(fp)
  803868:	10c02f85 	stb	r3,190(r2)
  d->_g93 = d->_g49 || d->_g93;
  80386c:	e0bffc17 	ldw	r2,-16(fp)
  803870:	10802843 	ldbu	r2,161(r2)
  803874:	10803fcc 	andi	r2,r2,255
  803878:	1080201c 	xori	r2,r2,128
  80387c:	10bfe004 	addi	r2,r2,-128
  803880:	1000061e 	bne	r2,zero,80389c <logic+0x2e64>
  803884:	e0bffc17 	ldw	r2,-16(fp)
  803888:	10803083 	ldbu	r2,194(r2)
  80388c:	10803fcc 	andi	r2,r2,255
  803890:	1080201c 	xori	r2,r2,128
  803894:	10bfe004 	addi	r2,r2,-128
  803898:	10000226 	beq	r2,zero,8038a4 <logic+0x2e6c>
  80389c:	00800044 	movi	r2,1
  8038a0:	00000106 	br	8038a8 <logic+0x2e70>
  8038a4:	0005883a 	mov	r2,zero
  8038a8:	1007883a 	mov	r3,r2
  8038ac:	e0bffc17 	ldw	r2,-16(fp)
  8038b0:	10c03085 	stb	r3,194(r2)
  d->_g90 = (d->_g67 || d->_g82) && (d->_g89 || d->_g93) && (d->_g82 || d->_g93);
  8038b4:	e0bffc17 	ldw	r2,-16(fp)
  8038b8:	10802c03 	ldbu	r2,176(r2)
  8038bc:	10803fcc 	andi	r2,r2,255
  8038c0:	1080201c 	xori	r2,r2,128
  8038c4:	10bfe004 	addi	r2,r2,-128
  8038c8:	1000061e 	bne	r2,zero,8038e4 <logic+0x2eac>
  8038cc:	e0bffc17 	ldw	r2,-16(fp)
  8038d0:	10802e83 	ldbu	r2,186(r2)
  8038d4:	10803fcc 	andi	r2,r2,255
  8038d8:	1080201c 	xori	r2,r2,128
  8038dc:	10bfe004 	addi	r2,r2,-128
  8038e0:	10001a26 	beq	r2,zero,80394c <logic+0x2f14>
  8038e4:	e0bffc17 	ldw	r2,-16(fp)
  8038e8:	10802f83 	ldbu	r2,190(r2)
  8038ec:	10803fcc 	andi	r2,r2,255
  8038f0:	1080201c 	xori	r2,r2,128
  8038f4:	10bfe004 	addi	r2,r2,-128
  8038f8:	1000061e 	bne	r2,zero,803914 <logic+0x2edc>
  8038fc:	e0bffc17 	ldw	r2,-16(fp)
  803900:	10803083 	ldbu	r2,194(r2)
  803904:	10803fcc 	andi	r2,r2,255
  803908:	1080201c 	xori	r2,r2,128
  80390c:	10bfe004 	addi	r2,r2,-128
  803910:	10000e26 	beq	r2,zero,80394c <logic+0x2f14>
  803914:	e0bffc17 	ldw	r2,-16(fp)
  803918:	10802e83 	ldbu	r2,186(r2)
  80391c:	10803fcc 	andi	r2,r2,255
  803920:	1080201c 	xori	r2,r2,128
  803924:	10bfe004 	addi	r2,r2,-128
  803928:	1000061e 	bne	r2,zero,803944 <logic+0x2f0c>
  80392c:	e0bffc17 	ldw	r2,-16(fp)
  803930:	10803083 	ldbu	r2,194(r2)
  803934:	10803fcc 	andi	r2,r2,255
  803938:	1080201c 	xori	r2,r2,128
  80393c:	10bfe004 	addi	r2,r2,-128
  803940:	10000226 	beq	r2,zero,80394c <logic+0x2f14>
  803944:	00800044 	movi	r2,1
  803948:	00000106 	br	803950 <logic+0x2f18>
  80394c:	0005883a 	mov	r2,zero
  803950:	1007883a 	mov	r3,r2
  803954:	e0bffc17 	ldw	r2,-16(fp)
  803958:	10c02fc5 	stb	r3,191(r2)
  d->_cg94 = d->_DDDpacemake2_local__Atrig5;
  80395c:	e0bffc17 	ldw	r2,-16(fp)
  803960:	10c01d43 	ldbu	r3,117(r2)
  803964:	e0bffc17 	ldw	r2,-16(fp)
  803968:	10c04745 	stb	r3,285(r2)
  d->_g82_e1 = d->_g90 && !d->_cg94;
  80396c:	e0bffc17 	ldw	r2,-16(fp)
  803970:	10802fc3 	ldbu	r2,191(r2)
  803974:	10803fcc 	andi	r2,r2,255
  803978:	1080201c 	xori	r2,r2,128
  80397c:	10bfe004 	addi	r2,r2,-128
  803980:	10000826 	beq	r2,zero,8039a4 <logic+0x2f6c>
  803984:	e0bffc17 	ldw	r2,-16(fp)
  803988:	10804743 	ldbu	r2,285(r2)
  80398c:	10803fcc 	andi	r2,r2,255
  803990:	1080201c 	xori	r2,r2,128
  803994:	10bfe004 	addi	r2,r2,-128
  803998:	1000021e 	bne	r2,zero,8039a4 <logic+0x2f6c>
  80399c:	00800044 	movi	r2,1
  8039a0:	00000106 	br	8039a8 <logic+0x2f70>
  8039a4:	0005883a 	mov	r2,zero
  8039a8:	1007883a 	mov	r3,r2
  8039ac:	e0bffc17 	ldw	r2,-16(fp)
  8039b0:	10c04e45 	stb	r3,313(r2)
  if (d->_g82_e1) {
  8039b4:	e0bffc17 	ldw	r2,-16(fp)
  8039b8:	10804e43 	ldbu	r2,313(r2)
  8039bc:	10803fcc 	andi	r2,r2,255
  8039c0:	1080201c 	xori	r2,r2,128
  8039c4:	10bfe004 	addi	r2,r2,-128
  8039c8:	10000426 	beq	r2,zero,8039dc <logic+0x2fa4>
    d->_DDDpacemake2_local_PVARP_state = 0;
  8039cc:	e0bffc17 	ldw	r2,-16(fp)
  8039d0:	100018c5 	stb	zero,99(r2)
    d->_DDDpacemake2_local_AR = 0;
  8039d4:	e0bffc17 	ldw	r2,-16(fp)
  8039d8:	10001985 	stb	zero,102(r2)
  }
  d->_g91_e2 = d->_GO || d->_g82_e1 || d->_g98 || d->_g97 && !d->AS;
  8039dc:	e0bffc17 	ldw	r2,-16(fp)
  8039e0:	10803ec3 	ldbu	r2,251(r2)
  8039e4:	10803fcc 	andi	r2,r2,255
  8039e8:	1080201c 	xori	r2,r2,128
  8039ec:	10bfe004 	addi	r2,r2,-128
  8039f0:	1000181e 	bne	r2,zero,803a54 <logic+0x301c>
  8039f4:	e0bffc17 	ldw	r2,-16(fp)
  8039f8:	10804e43 	ldbu	r2,313(r2)
  8039fc:	10803fcc 	andi	r2,r2,255
  803a00:	1080201c 	xori	r2,r2,128
  803a04:	10bfe004 	addi	r2,r2,-128
  803a08:	1000121e 	bne	r2,zero,803a54 <logic+0x301c>
  803a0c:	e0bffc17 	ldw	r2,-16(fp)
  803a10:	108031c3 	ldbu	r2,199(r2)
  803a14:	10803fcc 	andi	r2,r2,255
  803a18:	1080201c 	xori	r2,r2,128
  803a1c:	10bfe004 	addi	r2,r2,-128
  803a20:	10000c1e 	bne	r2,zero,803a54 <logic+0x301c>
  803a24:	e0bffc17 	ldw	r2,-16(fp)
  803a28:	10803183 	ldbu	r2,198(r2)
  803a2c:	10803fcc 	andi	r2,r2,255
  803a30:	1080201c 	xori	r2,r2,128
  803a34:	10bfe004 	addi	r2,r2,-128
  803a38:	10000826 	beq	r2,zero,803a5c <logic+0x3024>
  803a3c:	e0bffc17 	ldw	r2,-16(fp)
  803a40:	10800603 	ldbu	r2,24(r2)
  803a44:	10803fcc 	andi	r2,r2,255
  803a48:	1080201c 	xori	r2,r2,128
  803a4c:	10bfe004 	addi	r2,r2,-128
  803a50:	1000021e 	bne	r2,zero,803a5c <logic+0x3024>
  803a54:	00800044 	movi	r2,1
  803a58:	00000106 	br	803a60 <logic+0x3028>
  803a5c:	0005883a 	mov	r2,zero
  803a60:	1007883a 	mov	r3,r2
  803a64:	e0bffc17 	ldw	r2,-16(fp)
  803a68:	10c04e85 	stb	r3,314(r2)
  d->_g91 = d->_g73 && d->_cg73;
  803a6c:	e0bffc17 	ldw	r2,-16(fp)
  803a70:	10802cc3 	ldbu	r2,179(r2)
  803a74:	10803fcc 	andi	r2,r2,255
  803a78:	1080201c 	xori	r2,r2,128
  803a7c:	10bfe004 	addi	r2,r2,-128
  803a80:	10000826 	beq	r2,zero,803aa4 <logic+0x306c>
  803a84:	e0bffc17 	ldw	r2,-16(fp)
  803a88:	10804503 	ldbu	r2,276(r2)
  803a8c:	10803fcc 	andi	r2,r2,255
  803a90:	1080201c 	xori	r2,r2,128
  803a94:	10bfe004 	addi	r2,r2,-128
  803a98:	10000226 	beq	r2,zero,803aa4 <logic+0x306c>
  803a9c:	00800044 	movi	r2,1
  803aa0:	00000106 	br	803aa8 <logic+0x3070>
  803aa4:	0005883a 	mov	r2,zero
  803aa8:	1007883a 	mov	r3,r2
  803aac:	e0bffc17 	ldw	r2,-16(fp)
  803ab0:	10c03005 	stb	r3,192(r2)
  if (d->_g91) {
  803ab4:	e0bffc17 	ldw	r2,-16(fp)
  803ab8:	10803003 	ldbu	r2,192(r2)
  803abc:	10803fcc 	andi	r2,r2,255
  803ac0:	1080201c 	xori	r2,r2,128
  803ac4:	10bfe004 	addi	r2,r2,-128
  803ac8:	10000626 	beq	r2,zero,803ae4 <logic+0x30ac>
    d->_DDDpacemake2_local_PVARP_state = 1;
  803acc:	e0bffc17 	ldw	r2,-16(fp)
  803ad0:	00c00044 	movi	r3,1
  803ad4:	10c018c5 	stb	r3,99(r2)
    d->PVARP_counter = 0;
  803ad8:	e0bffc17 	ldw	r2,-16(fp)
  803adc:	10000b15 	stw	zero,44(r2)
  803ae0:	10000c15 	stw	zero,48(r2)
  }
  d->_g82 = d->_g90 && d->_cg94;
  803ae4:	e0bffc17 	ldw	r2,-16(fp)
  803ae8:	10802fc3 	ldbu	r2,191(r2)
  803aec:	10803fcc 	andi	r2,r2,255
  803af0:	1080201c 	xori	r2,r2,128
  803af4:	10bfe004 	addi	r2,r2,-128
  803af8:	10000826 	beq	r2,zero,803b1c <logic+0x30e4>
  803afc:	e0bffc17 	ldw	r2,-16(fp)
  803b00:	10804743 	ldbu	r2,285(r2)
  803b04:	10803fcc 	andi	r2,r2,255
  803b08:	1080201c 	xori	r2,r2,128
  803b0c:	10bfe004 	addi	r2,r2,-128
  803b10:	10000226 	beq	r2,zero,803b1c <logic+0x30e4>
  803b14:	00800044 	movi	r2,1
  803b18:	00000106 	br	803b20 <logic+0x30e8>
  803b1c:	0005883a 	mov	r2,zero
  803b20:	1007883a 	mov	r3,r2
  803b24:	e0bffc17 	ldw	r2,-16(fp)
  803b28:	10c02e85 	stb	r3,186(r2)
  if (d->_g82) {
  803b2c:	e0bffc17 	ldw	r2,-16(fp)
  803b30:	10802e83 	ldbu	r2,186(r2)
  803b34:	10803fcc 	andi	r2,r2,255
  803b38:	1080201c 	xori	r2,r2,128
  803b3c:	10bfe004 	addi	r2,r2,-128
  803b40:	10000326 	beq	r2,zero,803b50 <logic+0x3118>
    d->_DDDpacemake2_local_AR = 1;
  803b44:	e0bffc17 	ldw	r2,-16(fp)
  803b48:	00c00044 	movi	r3,1
  803b4c:	10c01985 	stb	r3,102(r2)
  }
  d->_g96 = d->_g91 || d->_g82;
  803b50:	e0bffc17 	ldw	r2,-16(fp)
  803b54:	10803003 	ldbu	r2,192(r2)
  803b58:	10803fcc 	andi	r2,r2,255
  803b5c:	1080201c 	xori	r2,r2,128
  803b60:	10bfe004 	addi	r2,r2,-128
  803b64:	1000061e 	bne	r2,zero,803b80 <logic+0x3148>
  803b68:	e0bffc17 	ldw	r2,-16(fp)
  803b6c:	10802e83 	ldbu	r2,186(r2)
  803b70:	10803fcc 	andi	r2,r2,255
  803b74:	1080201c 	xori	r2,r2,128
  803b78:	10bfe004 	addi	r2,r2,-128
  803b7c:	10000226 	beq	r2,zero,803b88 <logic+0x3150>
  803b80:	00800044 	movi	r2,1
  803b84:	00000106 	br	803b8c <logic+0x3154>
  803b88:	0005883a 	mov	r2,zero
  803b8c:	1007883a 	mov	r3,r2
  803b90:	e0bffc17 	ldw	r2,-16(fp)
  803b94:	10c03145 	stb	r3,197(r2)
  if (d->_g96) {
  803b98:	e0bffc17 	ldw	r2,-16(fp)
  803b9c:	10803143 	ldbu	r2,197(r2)
  803ba0:	10803fcc 	andi	r2,r2,255
  803ba4:	1080201c 	xori	r2,r2,128
  803ba8:	10bfe004 	addi	r2,r2,-128
  803bac:	10000426 	beq	r2,zero,803bc0 <logic+0x3188>
    d->_DDDpacemake2_local__Atrig5 = 0;
  803bb0:	e0bffc17 	ldw	r2,-16(fp)
  803bb4:	10001d45 	stb	zero,117(r2)
    d->_DDDpacemake2_local__Atrig6 = 0;
  803bb8:	e0bffc17 	ldw	r2,-16(fp)
  803bbc:	10001d85 	stb	zero,118(r2)
  }
  d->_cg76 = d->PVARP_counter < d->PVARP_DEADLINE;
  803bc0:	e0bffc17 	ldw	r2,-16(fp)
  803bc4:	14000b17 	ldw	r16,44(r2)
  803bc8:	14400c17 	ldw	r17,48(r2)
  803bcc:	e0bffc17 	ldw	r2,-16(fp)
  803bd0:	10800417 	ldw	r2,16(r2)
  803bd4:	1009883a 	mov	r4,r2
  803bd8:	08077600 	call	807760 <__floatsidf>
  803bdc:	1009883a 	mov	r4,r2
  803be0:	180b883a 	mov	r5,r3
  803be4:	04800044 	movi	r18,1
  803be8:	200d883a 	mov	r6,r4
  803bec:	280f883a 	mov	r7,r5
  803bf0:	8009883a 	mov	r4,r16
  803bf4:	880b883a 	mov	r5,r17
  803bf8:	08066580 	call	806658 <__ledf2>
  803bfc:	10000116 	blt	r2,zero,803c04 <logic+0x31cc>
  803c00:	0025883a 	mov	r18,zero
  803c04:	9007883a 	mov	r3,r18
  803c08:	e0bffc17 	ldw	r2,-16(fp)
  803c0c:	10c04545 	stb	r3,277(r2)
  d->_g97 = d->_g96 && d->_cg76;
  803c10:	e0bffc17 	ldw	r2,-16(fp)
  803c14:	10803143 	ldbu	r2,197(r2)
  803c18:	10803fcc 	andi	r2,r2,255
  803c1c:	1080201c 	xori	r2,r2,128
  803c20:	10bfe004 	addi	r2,r2,-128
  803c24:	10000826 	beq	r2,zero,803c48 <logic+0x3210>
  803c28:	e0bffc17 	ldw	r2,-16(fp)
  803c2c:	10804543 	ldbu	r2,277(r2)
  803c30:	10803fcc 	andi	r2,r2,255
  803c34:	1080201c 	xori	r2,r2,128
  803c38:	10bfe004 	addi	r2,r2,-128
  803c3c:	10000226 	beq	r2,zero,803c48 <logic+0x3210>
  803c40:	00800044 	movi	r2,1
  803c44:	00000106 	br	803c4c <logic+0x3214>
  803c48:	0005883a 	mov	r2,zero
  803c4c:	1007883a 	mov	r3,r2
  803c50:	e0bffc17 	ldw	r2,-16(fp)
  803c54:	10c03185 	stb	r3,198(r2)
  if (d->_g97) {
  803c58:	e0bffc17 	ldw	r2,-16(fp)
  803c5c:	10803183 	ldbu	r2,198(r2)
  803c60:	10803fcc 	andi	r2,r2,255
  803c64:	1080201c 	xori	r2,r2,128
  803c68:	10bfe004 	addi	r2,r2,-128
  803c6c:	10003426 	beq	r2,zero,803d40 <logic+0x3308>
    d->sleepT = (d->sleepT < (d->PVARP_DEADLINE - d->PVARP_counter)) ? d->sleepT : (d->PVARP_DEADLINE - d->PVARP_counter);
  803c70:	e0bffc17 	ldw	r2,-16(fp)
  803c74:	14001617 	ldw	r16,88(r2)
  803c78:	14401717 	ldw	r17,92(r2)
  803c7c:	e0bffc17 	ldw	r2,-16(fp)
  803c80:	10800417 	ldw	r2,16(r2)
  803c84:	1009883a 	mov	r4,r2
  803c88:	08077600 	call	807760 <__floatsidf>
  803c8c:	1011883a 	mov	r8,r2
  803c90:	1813883a 	mov	r9,r3
  803c94:	e13ffc17 	ldw	r4,-16(fp)
  803c98:	20800b17 	ldw	r2,44(r4)
  803c9c:	20c00c17 	ldw	r3,48(r4)
  803ca0:	100d883a 	mov	r6,r2
  803ca4:	180f883a 	mov	r7,r3
  803ca8:	4009883a 	mov	r4,r8
  803cac:	480b883a 	mov	r5,r9
  803cb0:	0806e640 	call	806e64 <__subdf3>
  803cb4:	1009883a 	mov	r4,r2
  803cb8:	180b883a 	mov	r5,r3
  803cbc:	2005883a 	mov	r2,r4
  803cc0:	2807883a 	mov	r3,r5
  803cc4:	100d883a 	mov	r6,r2
  803cc8:	180f883a 	mov	r7,r3
  803ccc:	8009883a 	mov	r4,r16
  803cd0:	880b883a 	mov	r5,r17
  803cd4:	08066580 	call	806658 <__ledf2>
  803cd8:	1000040e 	bge	r2,zero,803cec <logic+0x32b4>
  803cdc:	e13ffc17 	ldw	r4,-16(fp)
  803ce0:	20801617 	ldw	r2,88(r4)
  803ce4:	20c01717 	ldw	r3,92(r4)
  803ce8:	00001206 	br	803d34 <logic+0x32fc>
  803cec:	e0bffc17 	ldw	r2,-16(fp)
  803cf0:	10800417 	ldw	r2,16(r2)
  803cf4:	1009883a 	mov	r4,r2
  803cf8:	08077600 	call	807760 <__floatsidf>
  803cfc:	1011883a 	mov	r8,r2
  803d00:	1813883a 	mov	r9,r3
  803d04:	e13ffc17 	ldw	r4,-16(fp)
  803d08:	20800b17 	ldw	r2,44(r4)
  803d0c:	20c00c17 	ldw	r3,48(r4)
  803d10:	100d883a 	mov	r6,r2
  803d14:	180f883a 	mov	r7,r3
  803d18:	4009883a 	mov	r4,r8
  803d1c:	480b883a 	mov	r5,r9
  803d20:	0806e640 	call	806e64 <__subdf3>
  803d24:	1009883a 	mov	r4,r2
  803d28:	180b883a 	mov	r5,r3
  803d2c:	2005883a 	mov	r2,r4
  803d30:	2807883a 	mov	r3,r5
  803d34:	e13ffc17 	ldw	r4,-16(fp)
  803d38:	20801615 	stw	r2,88(r4)
  803d3c:	20c01715 	stw	r3,92(r4)
  }
  d->_cg77 = d->_DDDpacemake2_local__Atrig5 || d->_DDDpacemake2_local__Atrig6;
  803d40:	e0bffc17 	ldw	r2,-16(fp)
  803d44:	10801d43 	ldbu	r2,117(r2)
  803d48:	10803fcc 	andi	r2,r2,255
  803d4c:	1080201c 	xori	r2,r2,128
  803d50:	10bfe004 	addi	r2,r2,-128
  803d54:	1000061e 	bne	r2,zero,803d70 <logic+0x3338>
  803d58:	e0bffc17 	ldw	r2,-16(fp)
  803d5c:	10801d83 	ldbu	r2,118(r2)
  803d60:	10803fcc 	andi	r2,r2,255
  803d64:	1080201c 	xori	r2,r2,128
  803d68:	10bfe004 	addi	r2,r2,-128
  803d6c:	10000226 	beq	r2,zero,803d78 <logic+0x3340>
  803d70:	00800044 	movi	r2,1
  803d74:	00000106 	br	803d7c <logic+0x3344>
  803d78:	0005883a 	mov	r2,zero
  803d7c:	1007883a 	mov	r3,r2
  803d80:	e0bffc17 	ldw	r2,-16(fp)
  803d84:	10c04585 	stb	r3,278(r2)
  d->_g98 = d->_g97 && !d->_cg77 || d->_g79 && !d->_cg81;
  803d88:	e0bffc17 	ldw	r2,-16(fp)
  803d8c:	10803183 	ldbu	r2,198(r2)
  803d90:	10803fcc 	andi	r2,r2,255
  803d94:	1080201c 	xori	r2,r2,128
  803d98:	10bfe004 	addi	r2,r2,-128
  803d9c:	10000626 	beq	r2,zero,803db8 <logic+0x3380>
  803da0:	e0bffc17 	ldw	r2,-16(fp)
  803da4:	10804583 	ldbu	r2,278(r2)
  803da8:	10803fcc 	andi	r2,r2,255
  803dac:	1080201c 	xori	r2,r2,128
  803db0:	10bfe004 	addi	r2,r2,-128
  803db4:	10000c26 	beq	r2,zero,803de8 <logic+0x33b0>
  803db8:	e0bffc17 	ldw	r2,-16(fp)
  803dbc:	10802dc3 	ldbu	r2,183(r2)
  803dc0:	10803fcc 	andi	r2,r2,255
  803dc4:	1080201c 	xori	r2,r2,128
  803dc8:	10bfe004 	addi	r2,r2,-128
  803dcc:	10000826 	beq	r2,zero,803df0 <logic+0x33b8>
  803dd0:	e0bffc17 	ldw	r2,-16(fp)
  803dd4:	108045c3 	ldbu	r2,279(r2)
  803dd8:	10803fcc 	andi	r2,r2,255
  803ddc:	1080201c 	xori	r2,r2,128
  803de0:	10bfe004 	addi	r2,r2,-128
  803de4:	1000021e 	bne	r2,zero,803df0 <logic+0x33b8>
  803de8:	00800044 	movi	r2,1
  803dec:	00000106 	br	803df4 <logic+0x33bc>
  803df0:	0005883a 	mov	r2,zero
  803df4:	1007883a 	mov	r3,r2
  803df8:	e0bffc17 	ldw	r2,-16(fp)
  803dfc:	10c031c5 	stb	r3,199(r2)
  d->_g73 = d->_g96 && !d->_cg76;
  803e00:	e0bffc17 	ldw	r2,-16(fp)
  803e04:	10803143 	ldbu	r2,197(r2)
  803e08:	10803fcc 	andi	r2,r2,255
  803e0c:	1080201c 	xori	r2,r2,128
  803e10:	10bfe004 	addi	r2,r2,-128
  803e14:	10000826 	beq	r2,zero,803e38 <logic+0x3400>
  803e18:	e0bffc17 	ldw	r2,-16(fp)
  803e1c:	10804543 	ldbu	r2,277(r2)
  803e20:	10803fcc 	andi	r2,r2,255
  803e24:	1080201c 	xori	r2,r2,128
  803e28:	10bfe004 	addi	r2,r2,-128
  803e2c:	1000021e 	bne	r2,zero,803e38 <logic+0x3400>
  803e30:	00800044 	movi	r2,1
  803e34:	00000106 	br	803e3c <logic+0x3404>
  803e38:	0005883a 	mov	r2,zero
  803e3c:	1007883a 	mov	r3,r2
  803e40:	e0bffc17 	ldw	r2,-16(fp)
  803e44:	10c02cc5 	stb	r3,179(r2)
  d->_cg86 = d->_DDDpacemake2_local__Atrig5 || d->_DDDpacemake2_local__Atrig6;
  803e48:	e0bffc17 	ldw	r2,-16(fp)
  803e4c:	10801d43 	ldbu	r2,117(r2)
  803e50:	10803fcc 	andi	r2,r2,255
  803e54:	1080201c 	xori	r2,r2,128
  803e58:	10bfe004 	addi	r2,r2,-128
  803e5c:	1000061e 	bne	r2,zero,803e78 <logic+0x3440>
  803e60:	e0bffc17 	ldw	r2,-16(fp)
  803e64:	10801d83 	ldbu	r2,118(r2)
  803e68:	10803fcc 	andi	r2,r2,255
  803e6c:	1080201c 	xori	r2,r2,128
  803e70:	10bfe004 	addi	r2,r2,-128
  803e74:	10000226 	beq	r2,zero,803e80 <logic+0x3448>
  803e78:	00800044 	movi	r2,1
  803e7c:	00000106 	br	803e84 <logic+0x344c>
  803e80:	0005883a 	mov	r2,zero
  803e84:	1007883a 	mov	r3,r2
  803e88:	e0bffc17 	ldw	r2,-16(fp)
  803e8c:	10c04685 	stb	r3,282(r2)
  d->_g94 = d->_g80 && !d->_cg83 || d->_g73 && !d->_cg86;
  803e90:	e0bffc17 	ldw	r2,-16(fp)
  803e94:	10802e03 	ldbu	r2,184(r2)
  803e98:	10803fcc 	andi	r2,r2,255
  803e9c:	1080201c 	xori	r2,r2,128
  803ea0:	10bfe004 	addi	r2,r2,-128
  803ea4:	10000626 	beq	r2,zero,803ec0 <logic+0x3488>
  803ea8:	e0bffc17 	ldw	r2,-16(fp)
  803eac:	10804643 	ldbu	r2,281(r2)
  803eb0:	10803fcc 	andi	r2,r2,255
  803eb4:	1080201c 	xori	r2,r2,128
  803eb8:	10bfe004 	addi	r2,r2,-128
  803ebc:	10000c26 	beq	r2,zero,803ef0 <logic+0x34b8>
  803ec0:	e0bffc17 	ldw	r2,-16(fp)
  803ec4:	10802cc3 	ldbu	r2,179(r2)
  803ec8:	10803fcc 	andi	r2,r2,255
  803ecc:	1080201c 	xori	r2,r2,128
  803ed0:	10bfe004 	addi	r2,r2,-128
  803ed4:	10000826 	beq	r2,zero,803ef8 <logic+0x34c0>
  803ed8:	e0bffc17 	ldw	r2,-16(fp)
  803edc:	10804683 	ldbu	r2,282(r2)
  803ee0:	10803fcc 	andi	r2,r2,255
  803ee4:	1080201c 	xori	r2,r2,128
  803ee8:	10bfe004 	addi	r2,r2,-128
  803eec:	1000021e 	bne	r2,zero,803ef8 <logic+0x34c0>
  803ef0:	00800044 	movi	r2,1
  803ef4:	00000106 	br	803efc <logic+0x34c4>
  803ef8:	0005883a 	mov	r2,zero
  803efc:	1007883a 	mov	r3,r2
  803f00:	e0bffc17 	ldw	r2,-16(fp)
  803f04:	10c030c5 	stb	r3,195(r2)
  d->_g95 = d->_g96 || d->_g69 && !d->_cg92;
  803f08:	e0bffc17 	ldw	r2,-16(fp)
  803f0c:	10803143 	ldbu	r2,197(r2)
  803f10:	10803fcc 	andi	r2,r2,255
  803f14:	1080201c 	xori	r2,r2,128
  803f18:	10bfe004 	addi	r2,r2,-128
  803f1c:	10000c1e 	bne	r2,zero,803f50 <logic+0x3518>
  803f20:	e0bffc17 	ldw	r2,-16(fp)
  803f24:	10802c83 	ldbu	r2,178(r2)
  803f28:	10803fcc 	andi	r2,r2,255
  803f2c:	1080201c 	xori	r2,r2,128
  803f30:	10bfe004 	addi	r2,r2,-128
  803f34:	10000826 	beq	r2,zero,803f58 <logic+0x3520>
  803f38:	e0bffc17 	ldw	r2,-16(fp)
  803f3c:	108046c3 	ldbu	r2,283(r2)
  803f40:	10803fcc 	andi	r2,r2,255
  803f44:	1080201c 	xori	r2,r2,128
  803f48:	10bfe004 	addi	r2,r2,-128
  803f4c:	1000021e 	bne	r2,zero,803f58 <logic+0x3520>
  803f50:	00800044 	movi	r2,1
  803f54:	00000106 	br	803f5c <logic+0x3524>
  803f58:	0005883a 	mov	r2,zero
  803f5c:	1007883a 	mov	r3,r2
  803f60:	e0bffc17 	ldw	r2,-16(fp)
  803f64:	10c03105 	stb	r3,196(r2)
  d->_g74 = d->_pg124;
  803f68:	e0bffc17 	ldw	r2,-16(fp)
  803f6c:	10c05683 	ldbu	r3,346(r2)
  803f70:	e0bffc17 	ldw	r2,-16(fp)
  803f74:	10c02d05 	stb	r3,180(r2)
  d->_g77 = d->_pg125;
  803f78:	e0bffc17 	ldw	r2,-16(fp)
  803f7c:	10c056c3 	ldbu	r3,347(r2)
  803f80:	e0bffc17 	ldw	r2,-16(fp)
  803f84:	10c02d85 	stb	r3,182(r2)
  d->_g81 = !(d->_g74 || d->_g77);
  803f88:	e0bffc17 	ldw	r2,-16(fp)
  803f8c:	10802d03 	ldbu	r2,180(r2)
  803f90:	10803fcc 	andi	r2,r2,255
  803f94:	1080201c 	xori	r2,r2,128
  803f98:	10bfe004 	addi	r2,r2,-128
  803f9c:	1000081e 	bne	r2,zero,803fc0 <logic+0x3588>
  803fa0:	e0bffc17 	ldw	r2,-16(fp)
  803fa4:	10802d83 	ldbu	r2,182(r2)
  803fa8:	10803fcc 	andi	r2,r2,255
  803fac:	1080201c 	xori	r2,r2,128
  803fb0:	10bfe004 	addi	r2,r2,-128
  803fb4:	1000021e 	bne	r2,zero,803fc0 <logic+0x3588>
  803fb8:	00800044 	movi	r2,1
  803fbc:	00000106 	br	803fc4 <logic+0x358c>
  803fc0:	0005883a 	mov	r2,zero
  803fc4:	1007883a 	mov	r3,r2
  803fc8:	e0bffc17 	ldw	r2,-16(fp)
  803fcc:	10c02e45 	stb	r3,185(r2)
  d->_g86 = d->_pg103;
  803fd0:	e0bffc17 	ldw	r2,-16(fp)
  803fd4:	10c05703 	ldbu	r3,348(r2)
  803fd8:	e0bffc17 	ldw	r2,-16(fp)
  803fdc:	10c02f45 	stb	r3,189(r2)
  d->_g83 = d->_g86 && d->VS;
  803fe0:	e0bffc17 	ldw	r2,-16(fp)
  803fe4:	10802f43 	ldbu	r2,189(r2)
  803fe8:	10803fcc 	andi	r2,r2,255
  803fec:	1080201c 	xori	r2,r2,128
  803ff0:	10bfe004 	addi	r2,r2,-128
  803ff4:	10000826 	beq	r2,zero,804018 <logic+0x35e0>
  803ff8:	e0bffc17 	ldw	r2,-16(fp)
  803ffc:	10800643 	ldbu	r2,25(r2)
  804000:	10803fcc 	andi	r2,r2,255
  804004:	1080201c 	xori	r2,r2,128
  804008:	10bfe004 	addi	r2,r2,-128
  80400c:	10000226 	beq	r2,zero,804018 <logic+0x35e0>
  804010:	00800044 	movi	r2,1
  804014:	00000106 	br	80401c <logic+0x35e4>
  804018:	0005883a 	mov	r2,zero
  80401c:	1007883a 	mov	r3,r2
  804020:	e0bffc17 	ldw	r2,-16(fp)
  804024:	10c02ec5 	stb	r3,187(r2)
  if (d->_g83) {
  804028:	e0bffc17 	ldw	r2,-16(fp)
  80402c:	10802ec3 	ldbu	r2,187(r2)
  804030:	10803fcc 	andi	r2,r2,255
  804034:	1080201c 	xori	r2,r2,128
  804038:	10bfe004 	addi	r2,r2,-128
  80403c:	10000326 	beq	r2,zero,80404c <logic+0x3614>
    d->_DDDpacemake2_local__Atrig7 = 1;
  804040:	e0bffc17 	ldw	r2,-16(fp)
  804044:	00c00044 	movi	r3,1
  804048:	10c01dc5 	stb	r3,119(r2)
  }
  d->_g92 = d->_pg129;
  80404c:	e0bffc17 	ldw	r2,-16(fp)
  804050:	10c05743 	ldbu	r3,349(r2)
  804054:	e0bffc17 	ldw	r2,-16(fp)
  804058:	10c03045 	stb	r3,193(r2)
  if (d->_g92) {
  80405c:	e0bffc17 	ldw	r2,-16(fp)
  804060:	10803043 	ldbu	r2,193(r2)
  804064:	10803fcc 	andi	r2,r2,255
  804068:	1080201c 	xori	r2,r2,128
  80406c:	10bfe004 	addi	r2,r2,-128
  804070:	10001226 	beq	r2,zero,8040bc <logic+0x3684>
    d->VRP_counter += d->deltaT;
  804074:	e13ffc17 	ldw	r4,-16(fp)
  804078:	20800d17 	ldw	r2,52(r4)
  80407c:	20c00e17 	ldw	r3,56(r4)
  804080:	e1bffc17 	ldw	r6,-16(fp)
  804084:	31001417 	ldw	r4,80(r6)
  804088:	31401517 	ldw	r5,84(r6)
  80408c:	200d883a 	mov	r6,r4
  804090:	280f883a 	mov	r7,r5
  804094:	1009883a 	mov	r4,r2
  804098:	180b883a 	mov	r5,r3
  80409c:	0805cd00 	call	805cd0 <__adddf3>
  8040a0:	1009883a 	mov	r4,r2
  8040a4:	180b883a 	mov	r5,r3
  8040a8:	2005883a 	mov	r2,r4
  8040ac:	2807883a 	mov	r3,r5
  8040b0:	e13ffc17 	ldw	r4,-16(fp)
  8040b4:	20800d15 	stw	r2,52(r4)
  8040b8:	20c00e15 	stw	r3,56(r4)
  }
  d->_g75 = d->_g86 && !d->VS;
  8040bc:	e0bffc17 	ldw	r2,-16(fp)
  8040c0:	10802f43 	ldbu	r2,189(r2)
  8040c4:	10803fcc 	andi	r2,r2,255
  8040c8:	1080201c 	xori	r2,r2,128
  8040cc:	10bfe004 	addi	r2,r2,-128
  8040d0:	10000826 	beq	r2,zero,8040f4 <logic+0x36bc>
  8040d4:	e0bffc17 	ldw	r2,-16(fp)
  8040d8:	10800643 	ldbu	r2,25(r2)
  8040dc:	10803fcc 	andi	r2,r2,255
  8040e0:	1080201c 	xori	r2,r2,128
  8040e4:	10bfe004 	addi	r2,r2,-128
  8040e8:	1000021e 	bne	r2,zero,8040f4 <logic+0x36bc>
  8040ec:	00800044 	movi	r2,1
  8040f0:	00000106 	br	8040f8 <logic+0x36c0>
  8040f4:	0005883a 	mov	r2,zero
  8040f8:	1007883a 	mov	r3,r2
  8040fc:	e0bffc17 	ldw	r2,-16(fp)
  804100:	10c02d45 	stb	r3,181(r2)
  d->_cg121 = d->VRP_counter >= d->VRP_DEADLINE;
  804104:	e0bffc17 	ldw	r2,-16(fp)
  804108:	14000d17 	ldw	r16,52(r2)
  80410c:	14400e17 	ldw	r17,56(r2)
  804110:	e0bffc17 	ldw	r2,-16(fp)
  804114:	10800517 	ldw	r2,20(r2)
  804118:	1009883a 	mov	r4,r2
  80411c:	08077600 	call	807760 <__floatsidf>
  804120:	1009883a 	mov	r4,r2
  804124:	180b883a 	mov	r5,r3
  804128:	04800044 	movi	r18,1
  80412c:	200d883a 	mov	r6,r4
  804130:	280f883a 	mov	r7,r5
  804134:	8009883a 	mov	r4,r16
  804138:	880b883a 	mov	r5,r17
  80413c:	080657c0 	call	80657c <__gedf2>
  804140:	1000010e 	bge	r2,zero,804148 <logic+0x3710>
  804144:	0025883a 	mov	r18,zero
  804148:	9007883a 	mov	r3,r18
  80414c:	e0bffc17 	ldw	r2,-16(fp)
  804150:	10c04945 	stb	r3,293(r2)
  d->_g122 = d->_g75 && d->_cg121;
  804154:	e0bffc17 	ldw	r2,-16(fp)
  804158:	10802d43 	ldbu	r2,181(r2)
  80415c:	10803fcc 	andi	r2,r2,255
  804160:	1080201c 	xori	r2,r2,128
  804164:	10bfe004 	addi	r2,r2,-128
  804168:	10000826 	beq	r2,zero,80418c <logic+0x3754>
  80416c:	e0bffc17 	ldw	r2,-16(fp)
  804170:	10804943 	ldbu	r2,293(r2)
  804174:	10803fcc 	andi	r2,r2,255
  804178:	1080201c 	xori	r2,r2,128
  80417c:	10bfe004 	addi	r2,r2,-128
  804180:	10000226 	beq	r2,zero,80418c <logic+0x3754>
  804184:	00800044 	movi	r2,1
  804188:	00000106 	br	804190 <logic+0x3758>
  80418c:	0005883a 	mov	r2,zero
  804190:	1007883a 	mov	r3,r2
  804194:	e0bffc17 	ldw	r2,-16(fp)
  804198:	10c035c5 	stb	r3,215(r2)
  if (d->_g122) {
  80419c:	e0bffc17 	ldw	r2,-16(fp)
  8041a0:	108035c3 	ldbu	r2,215(r2)
  8041a4:	10803fcc 	andi	r2,r2,255
  8041a8:	1080201c 	xori	r2,r2,128
  8041ac:	10bfe004 	addi	r2,r2,-128
  8041b0:	10000326 	beq	r2,zero,8041c0 <logic+0x3788>
    d->_DDDpacemake2_local__Atrig8 = 1;
  8041b4:	e0bffc17 	ldw	r2,-16(fp)
  8041b8:	00c00044 	movi	r3,1
  8041bc:	10c01e05 	stb	r3,120(r2)
  }
  d->_g114 = d->_g77 || d->_g74;
  8041c0:	e0bffc17 	ldw	r2,-16(fp)
  8041c4:	10802d83 	ldbu	r2,182(r2)
  8041c8:	10803fcc 	andi	r2,r2,255
  8041cc:	1080201c 	xori	r2,r2,128
  8041d0:	10bfe004 	addi	r2,r2,-128
  8041d4:	1000061e 	bne	r2,zero,8041f0 <logic+0x37b8>
  8041d8:	e0bffc17 	ldw	r2,-16(fp)
  8041dc:	10802d03 	ldbu	r2,180(r2)
  8041e0:	10803fcc 	andi	r2,r2,255
  8041e4:	1080201c 	xori	r2,r2,128
  8041e8:	10bfe004 	addi	r2,r2,-128
  8041ec:	10000226 	beq	r2,zero,8041f8 <logic+0x37c0>
  8041f0:	00800044 	movi	r2,1
  8041f4:	00000106 	br	8041fc <logic+0x37c4>
  8041f8:	0005883a 	mov	r2,zero
  8041fc:	1007883a 	mov	r3,r2
  804200:	e0bffc17 	ldw	r2,-16(fp)
  804204:	10c03445 	stb	r3,209(r2)
  d->_cg109 = d->VRP_counter < d->VRP_DEADLINE;
  804208:	e0bffc17 	ldw	r2,-16(fp)
  80420c:	14000d17 	ldw	r16,52(r2)
  804210:	14400e17 	ldw	r17,56(r2)
  804214:	e0bffc17 	ldw	r2,-16(fp)
  804218:	10800517 	ldw	r2,20(r2)
  80421c:	1009883a 	mov	r4,r2
  804220:	08077600 	call	807760 <__floatsidf>
  804224:	1009883a 	mov	r4,r2
  804228:	180b883a 	mov	r5,r3
  80422c:	04800044 	movi	r18,1
  804230:	200d883a 	mov	r6,r4
  804234:	280f883a 	mov	r7,r5
  804238:	8009883a 	mov	r4,r16
  80423c:	880b883a 	mov	r5,r17
  804240:	08066580 	call	806658 <__ledf2>
  804244:	10000116 	blt	r2,zero,80424c <logic+0x3814>
  804248:	0025883a 	mov	r18,zero
  80424c:	9007883a 	mov	r3,r18
  804250:	e0bffc17 	ldw	r2,-16(fp)
  804254:	10c04885 	stb	r3,290(r2)
  d->_g108 = d->_g114 && d->_cg109;
  804258:	e0bffc17 	ldw	r2,-16(fp)
  80425c:	10803443 	ldbu	r2,209(r2)
  804260:	10803fcc 	andi	r2,r2,255
  804264:	1080201c 	xori	r2,r2,128
  804268:	10bfe004 	addi	r2,r2,-128
  80426c:	10000826 	beq	r2,zero,804290 <logic+0x3858>
  804270:	e0bffc17 	ldw	r2,-16(fp)
  804274:	10804883 	ldbu	r2,290(r2)
  804278:	10803fcc 	andi	r2,r2,255
  80427c:	1080201c 	xori	r2,r2,128
  804280:	10bfe004 	addi	r2,r2,-128
  804284:	10000226 	beq	r2,zero,804290 <logic+0x3858>
  804288:	00800044 	movi	r2,1
  80428c:	00000106 	br	804294 <logic+0x385c>
  804290:	0005883a 	mov	r2,zero
  804294:	1007883a 	mov	r3,r2
  804298:	e0bffc17 	ldw	r2,-16(fp)
  80429c:	10c03305 	stb	r3,204(r2)
  if (d->_g108) {
  8042a0:	e0bffc17 	ldw	r2,-16(fp)
  8042a4:	10803303 	ldbu	r2,204(r2)
  8042a8:	10803fcc 	andi	r2,r2,255
  8042ac:	1080201c 	xori	r2,r2,128
  8042b0:	10bfe004 	addi	r2,r2,-128
  8042b4:	10003426 	beq	r2,zero,804388 <logic+0x3950>
    d->sleepT = (d->sleepT < (d->VRP_DEADLINE - d->VRP_counter)) ? d->sleepT : (d->VRP_DEADLINE - d->VRP_counter);
  8042b8:	e0bffc17 	ldw	r2,-16(fp)
  8042bc:	14001617 	ldw	r16,88(r2)
  8042c0:	14401717 	ldw	r17,92(r2)
  8042c4:	e0bffc17 	ldw	r2,-16(fp)
  8042c8:	10800517 	ldw	r2,20(r2)
  8042cc:	1009883a 	mov	r4,r2
  8042d0:	08077600 	call	807760 <__floatsidf>
  8042d4:	1011883a 	mov	r8,r2
  8042d8:	1813883a 	mov	r9,r3
  8042dc:	e13ffc17 	ldw	r4,-16(fp)
  8042e0:	20800d17 	ldw	r2,52(r4)
  8042e4:	20c00e17 	ldw	r3,56(r4)
  8042e8:	100d883a 	mov	r6,r2
  8042ec:	180f883a 	mov	r7,r3
  8042f0:	4009883a 	mov	r4,r8
  8042f4:	480b883a 	mov	r5,r9
  8042f8:	0806e640 	call	806e64 <__subdf3>
  8042fc:	1009883a 	mov	r4,r2
  804300:	180b883a 	mov	r5,r3
  804304:	2005883a 	mov	r2,r4
  804308:	2807883a 	mov	r3,r5
  80430c:	100d883a 	mov	r6,r2
  804310:	180f883a 	mov	r7,r3
  804314:	8009883a 	mov	r4,r16
  804318:	880b883a 	mov	r5,r17
  80431c:	08066580 	call	806658 <__ledf2>
  804320:	1000040e 	bge	r2,zero,804334 <logic+0x38fc>
  804324:	e13ffc17 	ldw	r4,-16(fp)
  804328:	20801617 	ldw	r2,88(r4)
  80432c:	20c01717 	ldw	r3,92(r4)
  804330:	00001206 	br	80437c <logic+0x3944>
  804334:	e0bffc17 	ldw	r2,-16(fp)
  804338:	10800517 	ldw	r2,20(r2)
  80433c:	1009883a 	mov	r4,r2
  804340:	08077600 	call	807760 <__floatsidf>
  804344:	1011883a 	mov	r8,r2
  804348:	1813883a 	mov	r9,r3
  80434c:	e13ffc17 	ldw	r4,-16(fp)
  804350:	20800d17 	ldw	r2,52(r4)
  804354:	20c00e17 	ldw	r3,56(r4)
  804358:	100d883a 	mov	r6,r2
  80435c:	180f883a 	mov	r7,r3
  804360:	4009883a 	mov	r4,r8
  804364:	480b883a 	mov	r5,r9
  804368:	0806e640 	call	806e64 <__subdf3>
  80436c:	1009883a 	mov	r4,r2
  804370:	180b883a 	mov	r5,r3
  804374:	2005883a 	mov	r2,r4
  804378:	2807883a 	mov	r3,r5
  80437c:	e13ffc17 	ldw	r4,-16(fp)
  804380:	20801615 	stw	r2,88(r4)
  804384:	20c01715 	stw	r3,92(r4)
  }
  d->_cg110 = d->_DDDpacemake2_local__Atrig7 || d->_DDDpacemake2_local__Atrig8;
  804388:	e0bffc17 	ldw	r2,-16(fp)
  80438c:	10801dc3 	ldbu	r2,119(r2)
  804390:	10803fcc 	andi	r2,r2,255
  804394:	1080201c 	xori	r2,r2,128
  804398:	10bfe004 	addi	r2,r2,-128
  80439c:	1000061e 	bne	r2,zero,8043b8 <logic+0x3980>
  8043a0:	e0bffc17 	ldw	r2,-16(fp)
  8043a4:	10801e03 	ldbu	r2,120(r2)
  8043a8:	10803fcc 	andi	r2,r2,255
  8043ac:	1080201c 	xori	r2,r2,128
  8043b0:	10bfe004 	addi	r2,r2,-128
  8043b4:	10000226 	beq	r2,zero,8043c0 <logic+0x3988>
  8043b8:	00800044 	movi	r2,1
  8043bc:	00000106 	br	8043c4 <logic+0x398c>
  8043c0:	0005883a 	mov	r2,zero
  8043c4:	1007883a 	mov	r3,r2
  8043c8:	e0bffc17 	ldw	r2,-16(fp)
  8043cc:	10c04845 	stb	r3,289(r2)
  d->_g109 = d->_g114 && !d->_cg109;
  8043d0:	e0bffc17 	ldw	r2,-16(fp)
  8043d4:	10803443 	ldbu	r2,209(r2)
  8043d8:	10803fcc 	andi	r2,r2,255
  8043dc:	1080201c 	xori	r2,r2,128
  8043e0:	10bfe004 	addi	r2,r2,-128
  8043e4:	10000826 	beq	r2,zero,804408 <logic+0x39d0>
  8043e8:	e0bffc17 	ldw	r2,-16(fp)
  8043ec:	10804883 	ldbu	r2,290(r2)
  8043f0:	10803fcc 	andi	r2,r2,255
  8043f4:	1080201c 	xori	r2,r2,128
  8043f8:	10bfe004 	addi	r2,r2,-128
  8043fc:	1000021e 	bne	r2,zero,804408 <logic+0x39d0>
  804400:	00800044 	movi	r2,1
  804404:	00000106 	br	80440c <logic+0x39d4>
  804408:	0005883a 	mov	r2,zero
  80440c:	1007883a 	mov	r3,r2
  804410:	e0bffc17 	ldw	r2,-16(fp)
  804414:	10c03345 	stb	r3,205(r2)
  d->_cg112 = d->_DDDpacemake2_local__Atrig7 || d->_DDDpacemake2_local__Atrig8;
  804418:	e0bffc17 	ldw	r2,-16(fp)
  80441c:	10801dc3 	ldbu	r2,119(r2)
  804420:	10803fcc 	andi	r2,r2,255
  804424:	1080201c 	xori	r2,r2,128
  804428:	10bfe004 	addi	r2,r2,-128
  80442c:	1000061e 	bne	r2,zero,804448 <logic+0x3a10>
  804430:	e0bffc17 	ldw	r2,-16(fp)
  804434:	10801e03 	ldbu	r2,120(r2)
  804438:	10803fcc 	andi	r2,r2,255
  80443c:	1080201c 	xori	r2,r2,128
  804440:	10bfe004 	addi	r2,r2,-128
  804444:	10000226 	beq	r2,zero,804450 <logic+0x3a18>
  804448:	00800044 	movi	r2,1
  80444c:	00000106 	br	804454 <logic+0x3a1c>
  804450:	0005883a 	mov	r2,zero
  804454:	1007883a 	mov	r3,r2
  804458:	e0bffc17 	ldw	r2,-16(fp)
  80445c:	10c048c5 	stb	r3,291(r2)
  d->_g111 = d->_g108 && d->_cg110 || d->_g109 && d->_cg112;
  804460:	e0bffc17 	ldw	r2,-16(fp)
  804464:	10803303 	ldbu	r2,204(r2)
  804468:	10803fcc 	andi	r2,r2,255
  80446c:	1080201c 	xori	r2,r2,128
  804470:	10bfe004 	addi	r2,r2,-128
  804474:	10000626 	beq	r2,zero,804490 <logic+0x3a58>
  804478:	e0bffc17 	ldw	r2,-16(fp)
  80447c:	10804843 	ldbu	r2,289(r2)
  804480:	10803fcc 	andi	r2,r2,255
  804484:	1080201c 	xori	r2,r2,128
  804488:	10bfe004 	addi	r2,r2,-128
  80448c:	10000c1e 	bne	r2,zero,8044c0 <logic+0x3a88>
  804490:	e0bffc17 	ldw	r2,-16(fp)
  804494:	10803343 	ldbu	r2,205(r2)
  804498:	10803fcc 	andi	r2,r2,255
  80449c:	1080201c 	xori	r2,r2,128
  8044a0:	10bfe004 	addi	r2,r2,-128
  8044a4:	10000826 	beq	r2,zero,8044c8 <logic+0x3a90>
  8044a8:	e0bffc17 	ldw	r2,-16(fp)
  8044ac:	108048c3 	ldbu	r2,291(r2)
  8044b0:	10803fcc 	andi	r2,r2,255
  8044b4:	1080201c 	xori	r2,r2,128
  8044b8:	10bfe004 	addi	r2,r2,-128
  8044bc:	10000226 	beq	r2,zero,8044c8 <logic+0x3a90>
  8044c0:	00800044 	movi	r2,1
  8044c4:	00000106 	br	8044cc <logic+0x3a94>
  8044c8:	0005883a 	mov	r2,zero
  8044cc:	1007883a 	mov	r3,r2
  8044d0:	e0bffc17 	ldw	r2,-16(fp)
  8044d4:	10c033c5 	stb	r3,207(r2)
  d->_g118 = !d->_g86;
  8044d8:	e0bffc17 	ldw	r2,-16(fp)
  8044dc:	10802f43 	ldbu	r2,189(r2)
  8044e0:	10803fcc 	andi	r2,r2,255
  8044e4:	1080201c 	xori	r2,r2,128
  8044e8:	10bfe004 	addi	r2,r2,-128
  8044ec:	1005003a 	cmpeq	r2,r2,zero
  8044f0:	1007883a 	mov	r3,r2
  8044f4:	e0bffc17 	ldw	r2,-16(fp)
  8044f8:	10c034c5 	stb	r3,211(r2)
  d->_g122 = d->_g83 || d->_g122;
  8044fc:	e0bffc17 	ldw	r2,-16(fp)
  804500:	10802ec3 	ldbu	r2,187(r2)
  804504:	10803fcc 	andi	r2,r2,255
  804508:	1080201c 	xori	r2,r2,128
  80450c:	10bfe004 	addi	r2,r2,-128
  804510:	1000061e 	bne	r2,zero,80452c <logic+0x3af4>
  804514:	e0bffc17 	ldw	r2,-16(fp)
  804518:	108035c3 	ldbu	r2,215(r2)
  80451c:	10803fcc 	andi	r2,r2,255
  804520:	1080201c 	xori	r2,r2,128
  804524:	10bfe004 	addi	r2,r2,-128
  804528:	10000226 	beq	r2,zero,804534 <logic+0x3afc>
  80452c:	00800044 	movi	r2,1
  804530:	00000106 	br	804538 <logic+0x3b00>
  804534:	0005883a 	mov	r2,zero
  804538:	1007883a 	mov	r3,r2
  80453c:	e0bffc17 	ldw	r2,-16(fp)
  804540:	10c035c5 	stb	r3,215(r2)
  d->_g119 = (d->_g81 || d->_g111) && (d->_g118 || d->_g122) && (d->_g111 || d->_g122);
  804544:	e0bffc17 	ldw	r2,-16(fp)
  804548:	10802e43 	ldbu	r2,185(r2)
  80454c:	10803fcc 	andi	r2,r2,255
  804550:	1080201c 	xori	r2,r2,128
  804554:	10bfe004 	addi	r2,r2,-128
  804558:	1000061e 	bne	r2,zero,804574 <logic+0x3b3c>
  80455c:	e0bffc17 	ldw	r2,-16(fp)
  804560:	108033c3 	ldbu	r2,207(r2)
  804564:	10803fcc 	andi	r2,r2,255
  804568:	1080201c 	xori	r2,r2,128
  80456c:	10bfe004 	addi	r2,r2,-128
  804570:	10001a26 	beq	r2,zero,8045dc <logic+0x3ba4>
  804574:	e0bffc17 	ldw	r2,-16(fp)
  804578:	108034c3 	ldbu	r2,211(r2)
  80457c:	10803fcc 	andi	r2,r2,255
  804580:	1080201c 	xori	r2,r2,128
  804584:	10bfe004 	addi	r2,r2,-128
  804588:	1000061e 	bne	r2,zero,8045a4 <logic+0x3b6c>
  80458c:	e0bffc17 	ldw	r2,-16(fp)
  804590:	108035c3 	ldbu	r2,215(r2)
  804594:	10803fcc 	andi	r2,r2,255
  804598:	1080201c 	xori	r2,r2,128
  80459c:	10bfe004 	addi	r2,r2,-128
  8045a0:	10000e26 	beq	r2,zero,8045dc <logic+0x3ba4>
  8045a4:	e0bffc17 	ldw	r2,-16(fp)
  8045a8:	108033c3 	ldbu	r2,207(r2)
  8045ac:	10803fcc 	andi	r2,r2,255
  8045b0:	1080201c 	xori	r2,r2,128
  8045b4:	10bfe004 	addi	r2,r2,-128
  8045b8:	1000061e 	bne	r2,zero,8045d4 <logic+0x3b9c>
  8045bc:	e0bffc17 	ldw	r2,-16(fp)
  8045c0:	108035c3 	ldbu	r2,215(r2)
  8045c4:	10803fcc 	andi	r2,r2,255
  8045c8:	1080201c 	xori	r2,r2,128
  8045cc:	10bfe004 	addi	r2,r2,-128
  8045d0:	10000226 	beq	r2,zero,8045dc <logic+0x3ba4>
  8045d4:	00800044 	movi	r2,1
  8045d8:	00000106 	br	8045e0 <logic+0x3ba8>
  8045dc:	0005883a 	mov	r2,zero
  8045e0:	1007883a 	mov	r3,r2
  8045e4:	e0bffc17 	ldw	r2,-16(fp)
  8045e8:	10c03505 	stb	r3,212(r2)
  d->_cg123 = d->_DDDpacemake2_local__Atrig7;
  8045ec:	e0bffc17 	ldw	r2,-16(fp)
  8045f0:	10c01dc3 	ldbu	r3,119(r2)
  8045f4:	e0bffc17 	ldw	r2,-16(fp)
  8045f8:	10c049c5 	stb	r3,295(r2)
  d->_g111 = d->_g119 && !d->_cg123;
  8045fc:	e0bffc17 	ldw	r2,-16(fp)
  804600:	10803503 	ldbu	r2,212(r2)
  804604:	10803fcc 	andi	r2,r2,255
  804608:	1080201c 	xori	r2,r2,128
  80460c:	10bfe004 	addi	r2,r2,-128
  804610:	10000826 	beq	r2,zero,804634 <logic+0x3bfc>
  804614:	e0bffc17 	ldw	r2,-16(fp)
  804618:	108049c3 	ldbu	r2,295(r2)
  80461c:	10803fcc 	andi	r2,r2,255
  804620:	1080201c 	xori	r2,r2,128
  804624:	10bfe004 	addi	r2,r2,-128
  804628:	1000021e 	bne	r2,zero,804634 <logic+0x3bfc>
  80462c:	00800044 	movi	r2,1
  804630:	00000106 	br	804638 <logic+0x3c00>
  804634:	0005883a 	mov	r2,zero
  804638:	1007883a 	mov	r3,r2
  80463c:	e0bffc17 	ldw	r2,-16(fp)
  804640:	10c033c5 	stb	r3,207(r2)
  if (d->_g111) {
  804644:	e0bffc17 	ldw	r2,-16(fp)
  804648:	108033c3 	ldbu	r2,207(r2)
  80464c:	10803fcc 	andi	r2,r2,255
  804650:	1080201c 	xori	r2,r2,128
  804654:	10bfe004 	addi	r2,r2,-128
  804658:	10000426 	beq	r2,zero,80466c <logic+0x3c34>
    d->_DDDpacemake2_local_VR = 0;
  80465c:	e0bffc17 	ldw	r2,-16(fp)
  804660:	100019c5 	stb	zero,103(r2)
    d->_DDDpacemake2_local_VRP_state = 0;
  804664:	e0bffc17 	ldw	r2,-16(fp)
  804668:	10001905 	stb	zero,100(r2)
  }
  d->_g120_e2 = d->_GO || d->_g111 || d->_g102 && !d->_cg102;
  80466c:	e0bffc17 	ldw	r2,-16(fp)
  804670:	10803ec3 	ldbu	r2,251(r2)
  804674:	10803fcc 	andi	r2,r2,255
  804678:	1080201c 	xori	r2,r2,128
  80467c:	10bfe004 	addi	r2,r2,-128
  804680:	1000121e 	bne	r2,zero,8046cc <logic+0x3c94>
  804684:	e0bffc17 	ldw	r2,-16(fp)
  804688:	108033c3 	ldbu	r2,207(r2)
  80468c:	10803fcc 	andi	r2,r2,255
  804690:	1080201c 	xori	r2,r2,128
  804694:	10bfe004 	addi	r2,r2,-128
  804698:	10000c1e 	bne	r2,zero,8046cc <logic+0x3c94>
  80469c:	e0bffc17 	ldw	r2,-16(fp)
  8046a0:	10803203 	ldbu	r2,200(r2)
  8046a4:	10803fcc 	andi	r2,r2,255
  8046a8:	1080201c 	xori	r2,r2,128
  8046ac:	10bfe004 	addi	r2,r2,-128
  8046b0:	10000826 	beq	r2,zero,8046d4 <logic+0x3c9c>
  8046b4:	e0bffc17 	ldw	r2,-16(fp)
  8046b8:	10804783 	ldbu	r2,286(r2)
  8046bc:	10803fcc 	andi	r2,r2,255
  8046c0:	1080201c 	xori	r2,r2,128
  8046c4:	10bfe004 	addi	r2,r2,-128
  8046c8:	1000021e 	bne	r2,zero,8046d4 <logic+0x3c9c>
  8046cc:	00800044 	movi	r2,1
  8046d0:	00000106 	br	8046d8 <logic+0x3ca0>
  8046d4:	0005883a 	mov	r2,zero
  8046d8:	1007883a 	mov	r3,r2
  8046dc:	e0bffc17 	ldw	r2,-16(fp)
  8046e0:	10c04f05 	stb	r3,316(r2)
  if (d->_g103) {
  8046e4:	e0bffc17 	ldw	r2,-16(fp)
  8046e8:	10803243 	ldbu	r2,201(r2)
  8046ec:	10803fcc 	andi	r2,r2,255
  8046f0:	1080201c 	xori	r2,r2,128
  8046f4:	10bfe004 	addi	r2,r2,-128
  8046f8:	10000326 	beq	r2,zero,804708 <logic+0x3cd0>
    d->VRP_counter = 0;
  8046fc:	e0bffc17 	ldw	r2,-16(fp)
  804700:	10000d15 	stw	zero,52(r2)
  804704:	10000e15 	stw	zero,56(r2)
  }
  d->_g111_e1 = d->_g119 && d->_cg123;
  804708:	e0bffc17 	ldw	r2,-16(fp)
  80470c:	10803503 	ldbu	r2,212(r2)
  804710:	10803fcc 	andi	r2,r2,255
  804714:	1080201c 	xori	r2,r2,128
  804718:	10bfe004 	addi	r2,r2,-128
  80471c:	10000826 	beq	r2,zero,804740 <logic+0x3d08>
  804720:	e0bffc17 	ldw	r2,-16(fp)
  804724:	108049c3 	ldbu	r2,295(r2)
  804728:	10803fcc 	andi	r2,r2,255
  80472c:	1080201c 	xori	r2,r2,128
  804730:	10bfe004 	addi	r2,r2,-128
  804734:	10000226 	beq	r2,zero,804740 <logic+0x3d08>
  804738:	00800044 	movi	r2,1
  80473c:	00000106 	br	804744 <logic+0x3d0c>
  804740:	0005883a 	mov	r2,zero
  804744:	1007883a 	mov	r3,r2
  804748:	e0bffc17 	ldw	r2,-16(fp)
  80474c:	10c04ec5 	stb	r3,315(r2)
  if (d->_g111_e1) {
  804750:	e0bffc17 	ldw	r2,-16(fp)
  804754:	10804ec3 	ldbu	r2,315(r2)
  804758:	10803fcc 	andi	r2,r2,255
  80475c:	1080201c 	xori	r2,r2,128
  804760:	10bfe004 	addi	r2,r2,-128
  804764:	10000326 	beq	r2,zero,804774 <logic+0x3d3c>
    d->_DDDpacemake2_local_VR = 1;
  804768:	e0bffc17 	ldw	r2,-16(fp)
  80476c:	00c00044 	movi	r3,1
  804770:	10c019c5 	stb	r3,103(r2)
  }
  d->_g120 = d->_g103 || d->_g111_e1;
  804774:	e0bffc17 	ldw	r2,-16(fp)
  804778:	10803243 	ldbu	r2,201(r2)
  80477c:	10803fcc 	andi	r2,r2,255
  804780:	1080201c 	xori	r2,r2,128
  804784:	10bfe004 	addi	r2,r2,-128
  804788:	1000061e 	bne	r2,zero,8047a4 <logic+0x3d6c>
  80478c:	e0bffc17 	ldw	r2,-16(fp)
  804790:	10804ec3 	ldbu	r2,315(r2)
  804794:	10803fcc 	andi	r2,r2,255
  804798:	1080201c 	xori	r2,r2,128
  80479c:	10bfe004 	addi	r2,r2,-128
  8047a0:	10000226 	beq	r2,zero,8047ac <logic+0x3d74>
  8047a4:	00800044 	movi	r2,1
  8047a8:	00000106 	br	8047b0 <logic+0x3d78>
  8047ac:	0005883a 	mov	r2,zero
  8047b0:	1007883a 	mov	r3,r2
  8047b4:	e0bffc17 	ldw	r2,-16(fp)
  8047b8:	10c03545 	stb	r3,213(r2)
  if (d->_g120) {
  8047bc:	e0bffc17 	ldw	r2,-16(fp)
  8047c0:	10803543 	ldbu	r2,213(r2)
  8047c4:	10803fcc 	andi	r2,r2,255
  8047c8:	1080201c 	xori	r2,r2,128
  8047cc:	10bfe004 	addi	r2,r2,-128
  8047d0:	10000426 	beq	r2,zero,8047e4 <logic+0x3dac>
    d->_DDDpacemake2_local__Atrig7 = 0;
  8047d4:	e0bffc17 	ldw	r2,-16(fp)
  8047d8:	10001dc5 	stb	zero,119(r2)
    d->_DDDpacemake2_local__Atrig8 = 0;
  8047dc:	e0bffc17 	ldw	r2,-16(fp)
  8047e0:	10001e05 	stb	zero,120(r2)
  }
  d->_cg105 = d->VRP_counter < d->VRP_DEADLINE;
  8047e4:	e0bffc17 	ldw	r2,-16(fp)
  8047e8:	14000d17 	ldw	r16,52(r2)
  8047ec:	14400e17 	ldw	r17,56(r2)
  8047f0:	e0bffc17 	ldw	r2,-16(fp)
  8047f4:	10800517 	ldw	r2,20(r2)
  8047f8:	1009883a 	mov	r4,r2
  8047fc:	08077600 	call	807760 <__floatsidf>
  804800:	1009883a 	mov	r4,r2
  804804:	180b883a 	mov	r5,r3
  804808:	04800044 	movi	r18,1
  80480c:	200d883a 	mov	r6,r4
  804810:	280f883a 	mov	r7,r5
  804814:	8009883a 	mov	r4,r16
  804818:	880b883a 	mov	r5,r17
  80481c:	08066580 	call	806658 <__ledf2>
  804820:	10000116 	blt	r2,zero,804828 <logic+0x3df0>
  804824:	0025883a 	mov	r18,zero
  804828:	9007883a 	mov	r3,r18
  80482c:	e0bffc17 	ldw	r2,-16(fp)
  804830:	10c047c5 	stb	r3,287(r2)
  d->_g102 = d->_g120 && d->_cg105;
  804834:	e0bffc17 	ldw	r2,-16(fp)
  804838:	10803543 	ldbu	r2,213(r2)
  80483c:	10803fcc 	andi	r2,r2,255
  804840:	1080201c 	xori	r2,r2,128
  804844:	10bfe004 	addi	r2,r2,-128
  804848:	10000826 	beq	r2,zero,80486c <logic+0x3e34>
  80484c:	e0bffc17 	ldw	r2,-16(fp)
  804850:	108047c3 	ldbu	r2,287(r2)
  804854:	10803fcc 	andi	r2,r2,255
  804858:	1080201c 	xori	r2,r2,128
  80485c:	10bfe004 	addi	r2,r2,-128
  804860:	10000226 	beq	r2,zero,80486c <logic+0x3e34>
  804864:	00800044 	movi	r2,1
  804868:	00000106 	br	804870 <logic+0x3e38>
  80486c:	0005883a 	mov	r2,zero
  804870:	1007883a 	mov	r3,r2
  804874:	e0bffc17 	ldw	r2,-16(fp)
  804878:	10c03205 	stb	r3,200(r2)
  if (d->_g102) {
  80487c:	e0bffc17 	ldw	r2,-16(fp)
  804880:	10803203 	ldbu	r2,200(r2)
  804884:	10803fcc 	andi	r2,r2,255
  804888:	1080201c 	xori	r2,r2,128
  80488c:	10bfe004 	addi	r2,r2,-128
  804890:	10003426 	beq	r2,zero,804964 <logic+0x3f2c>
    d->sleepT = (d->sleepT < (d->VRP_DEADLINE - d->VRP_counter)) ? d->sleepT : (d->VRP_DEADLINE - d->VRP_counter);
  804894:	e0bffc17 	ldw	r2,-16(fp)
  804898:	14001617 	ldw	r16,88(r2)
  80489c:	14401717 	ldw	r17,92(r2)
  8048a0:	e0bffc17 	ldw	r2,-16(fp)
  8048a4:	10800517 	ldw	r2,20(r2)
  8048a8:	1009883a 	mov	r4,r2
  8048ac:	08077600 	call	807760 <__floatsidf>
  8048b0:	1011883a 	mov	r8,r2
  8048b4:	1813883a 	mov	r9,r3
  8048b8:	e13ffc17 	ldw	r4,-16(fp)
  8048bc:	20800d17 	ldw	r2,52(r4)
  8048c0:	20c00e17 	ldw	r3,56(r4)
  8048c4:	100d883a 	mov	r6,r2
  8048c8:	180f883a 	mov	r7,r3
  8048cc:	4009883a 	mov	r4,r8
  8048d0:	480b883a 	mov	r5,r9
  8048d4:	0806e640 	call	806e64 <__subdf3>
  8048d8:	1009883a 	mov	r4,r2
  8048dc:	180b883a 	mov	r5,r3
  8048e0:	2005883a 	mov	r2,r4
  8048e4:	2807883a 	mov	r3,r5
  8048e8:	100d883a 	mov	r6,r2
  8048ec:	180f883a 	mov	r7,r3
  8048f0:	8009883a 	mov	r4,r16
  8048f4:	880b883a 	mov	r5,r17
  8048f8:	08066580 	call	806658 <__ledf2>
  8048fc:	1000040e 	bge	r2,zero,804910 <logic+0x3ed8>
  804900:	e13ffc17 	ldw	r4,-16(fp)
  804904:	20801617 	ldw	r2,88(r4)
  804908:	20c01717 	ldw	r3,92(r4)
  80490c:	00001206 	br	804958 <logic+0x3f20>
  804910:	e0bffc17 	ldw	r2,-16(fp)
  804914:	10800517 	ldw	r2,20(r2)
  804918:	1009883a 	mov	r4,r2
  80491c:	08077600 	call	807760 <__floatsidf>
  804920:	1011883a 	mov	r8,r2
  804924:	1813883a 	mov	r9,r3
  804928:	e13ffc17 	ldw	r4,-16(fp)
  80492c:	20800d17 	ldw	r2,52(r4)
  804930:	20c00e17 	ldw	r3,56(r4)
  804934:	100d883a 	mov	r6,r2
  804938:	180f883a 	mov	r7,r3
  80493c:	4009883a 	mov	r4,r8
  804940:	480b883a 	mov	r5,r9
  804944:	0806e640 	call	806e64 <__subdf3>
  804948:	1009883a 	mov	r4,r2
  80494c:	180b883a 	mov	r5,r3
  804950:	2005883a 	mov	r2,r4
  804954:	2807883a 	mov	r3,r5
  804958:	e13ffc17 	ldw	r4,-16(fp)
  80495c:	20801615 	stw	r2,88(r4)
  804960:	20c01715 	stw	r3,92(r4)
  }
  d->_cg106 = d->_DDDpacemake2_local__Atrig7 || d->_DDDpacemake2_local__Atrig8;
  804964:	e0bffc17 	ldw	r2,-16(fp)
  804968:	10801dc3 	ldbu	r2,119(r2)
  80496c:	10803fcc 	andi	r2,r2,255
  804970:	1080201c 	xori	r2,r2,128
  804974:	10bfe004 	addi	r2,r2,-128
  804978:	1000061e 	bne	r2,zero,804994 <logic+0x3f5c>
  80497c:	e0bffc17 	ldw	r2,-16(fp)
  804980:	10801e03 	ldbu	r2,120(r2)
  804984:	10803fcc 	andi	r2,r2,255
  804988:	1080201c 	xori	r2,r2,128
  80498c:	10bfe004 	addi	r2,r2,-128
  804990:	10000226 	beq	r2,zero,80499c <logic+0x3f64>
  804994:	00800044 	movi	r2,1
  804998:	00000106 	br	8049a0 <logic+0x3f68>
  80499c:	0005883a 	mov	r2,zero
  8049a0:	1007883a 	mov	r3,r2
  8049a4:	e0bffc17 	ldw	r2,-16(fp)
  8049a8:	10c04805 	stb	r3,288(r2)
  d->_g125 = d->_g102 && !d->_cg106 || d->_g108 && !d->_cg110;
  8049ac:	e0bffc17 	ldw	r2,-16(fp)
  8049b0:	10803203 	ldbu	r2,200(r2)
  8049b4:	10803fcc 	andi	r2,r2,255
  8049b8:	1080201c 	xori	r2,r2,128
  8049bc:	10bfe004 	addi	r2,r2,-128
  8049c0:	10000626 	beq	r2,zero,8049dc <logic+0x3fa4>
  8049c4:	e0bffc17 	ldw	r2,-16(fp)
  8049c8:	10804803 	ldbu	r2,288(r2)
  8049cc:	10803fcc 	andi	r2,r2,255
  8049d0:	1080201c 	xori	r2,r2,128
  8049d4:	10bfe004 	addi	r2,r2,-128
  8049d8:	10000c26 	beq	r2,zero,804a0c <logic+0x3fd4>
  8049dc:	e0bffc17 	ldw	r2,-16(fp)
  8049e0:	10803303 	ldbu	r2,204(r2)
  8049e4:	10803fcc 	andi	r2,r2,255
  8049e8:	1080201c 	xori	r2,r2,128
  8049ec:	10bfe004 	addi	r2,r2,-128
  8049f0:	10000826 	beq	r2,zero,804a14 <logic+0x3fdc>
  8049f4:	e0bffc17 	ldw	r2,-16(fp)
  8049f8:	10804843 	ldbu	r2,289(r2)
  8049fc:	10803fcc 	andi	r2,r2,255
  804a00:	1080201c 	xori	r2,r2,128
  804a04:	10bfe004 	addi	r2,r2,-128
  804a08:	1000021e 	bne	r2,zero,804a14 <logic+0x3fdc>
  804a0c:	00800044 	movi	r2,1
  804a10:	00000106 	br	804a18 <logic+0x3fe0>
  804a14:	0005883a 	mov	r2,zero
  804a18:	1007883a 	mov	r3,r2
  804a1c:	e0bffc17 	ldw	r2,-16(fp)
  804a20:	10c03685 	stb	r3,218(r2)
  d->_g123 = d->_g120 && !d->_cg105;
  804a24:	e0bffc17 	ldw	r2,-16(fp)
  804a28:	10803543 	ldbu	r2,213(r2)
  804a2c:	10803fcc 	andi	r2,r2,255
  804a30:	1080201c 	xori	r2,r2,128
  804a34:	10bfe004 	addi	r2,r2,-128
  804a38:	10000826 	beq	r2,zero,804a5c <logic+0x4024>
  804a3c:	e0bffc17 	ldw	r2,-16(fp)
  804a40:	108047c3 	ldbu	r2,287(r2)
  804a44:	10803fcc 	andi	r2,r2,255
  804a48:	1080201c 	xori	r2,r2,128
  804a4c:	10bfe004 	addi	r2,r2,-128
  804a50:	1000021e 	bne	r2,zero,804a5c <logic+0x4024>
  804a54:	00800044 	movi	r2,1
  804a58:	00000106 	br	804a60 <logic+0x4028>
  804a5c:	0005883a 	mov	r2,zero
  804a60:	1007883a 	mov	r3,r2
  804a64:	e0bffc17 	ldw	r2,-16(fp)
  804a68:	10c03605 	stb	r3,216(r2)
  d->_cg115 = d->_DDDpacemake2_local__Atrig7 || d->_DDDpacemake2_local__Atrig8;
  804a6c:	e0bffc17 	ldw	r2,-16(fp)
  804a70:	10801dc3 	ldbu	r2,119(r2)
  804a74:	10803fcc 	andi	r2,r2,255
  804a78:	1080201c 	xori	r2,r2,128
  804a7c:	10bfe004 	addi	r2,r2,-128
  804a80:	1000061e 	bne	r2,zero,804a9c <logic+0x4064>
  804a84:	e0bffc17 	ldw	r2,-16(fp)
  804a88:	10801e03 	ldbu	r2,120(r2)
  804a8c:	10803fcc 	andi	r2,r2,255
  804a90:	1080201c 	xori	r2,r2,128
  804a94:	10bfe004 	addi	r2,r2,-128
  804a98:	10000226 	beq	r2,zero,804aa4 <logic+0x406c>
  804a9c:	00800044 	movi	r2,1
  804aa0:	00000106 	br	804aa8 <logic+0x4070>
  804aa4:	0005883a 	mov	r2,zero
  804aa8:	1007883a 	mov	r3,r2
  804aac:	e0bffc17 	ldw	r2,-16(fp)
  804ab0:	10c04905 	stb	r3,292(r2)
  d->_g124 = d->_g109 && !d->_cg112 || d->_g123 && !d->_cg115;
  804ab4:	e0bffc17 	ldw	r2,-16(fp)
  804ab8:	10803343 	ldbu	r2,205(r2)
  804abc:	10803fcc 	andi	r2,r2,255
  804ac0:	1080201c 	xori	r2,r2,128
  804ac4:	10bfe004 	addi	r2,r2,-128
  804ac8:	10000626 	beq	r2,zero,804ae4 <logic+0x40ac>
  804acc:	e0bffc17 	ldw	r2,-16(fp)
  804ad0:	108048c3 	ldbu	r2,291(r2)
  804ad4:	10803fcc 	andi	r2,r2,255
  804ad8:	1080201c 	xori	r2,r2,128
  804adc:	10bfe004 	addi	r2,r2,-128
  804ae0:	10000c26 	beq	r2,zero,804b14 <logic+0x40dc>
  804ae4:	e0bffc17 	ldw	r2,-16(fp)
  804ae8:	10803603 	ldbu	r2,216(r2)
  804aec:	10803fcc 	andi	r2,r2,255
  804af0:	1080201c 	xori	r2,r2,128
  804af4:	10bfe004 	addi	r2,r2,-128
  804af8:	10000826 	beq	r2,zero,804b1c <logic+0x40e4>
  804afc:	e0bffc17 	ldw	r2,-16(fp)
  804b00:	10804903 	ldbu	r2,292(r2)
  804b04:	10803fcc 	andi	r2,r2,255
  804b08:	1080201c 	xori	r2,r2,128
  804b0c:	10bfe004 	addi	r2,r2,-128
  804b10:	1000021e 	bne	r2,zero,804b1c <logic+0x40e4>
  804b14:	00800044 	movi	r2,1
  804b18:	00000106 	br	804b20 <logic+0x40e8>
  804b1c:	0005883a 	mov	r2,zero
  804b20:	1007883a 	mov	r3,r2
  804b24:	e0bffc17 	ldw	r2,-16(fp)
  804b28:	10c03645 	stb	r3,217(r2)
  d->_g103 = d->_g120 || d->_g75 && !d->_cg121;
  804b2c:	e0bffc17 	ldw	r2,-16(fp)
  804b30:	10803543 	ldbu	r2,213(r2)
  804b34:	10803fcc 	andi	r2,r2,255
  804b38:	1080201c 	xori	r2,r2,128
  804b3c:	10bfe004 	addi	r2,r2,-128
  804b40:	10000c1e 	bne	r2,zero,804b74 <logic+0x413c>
  804b44:	e0bffc17 	ldw	r2,-16(fp)
  804b48:	10802d43 	ldbu	r2,181(r2)
  804b4c:	10803fcc 	andi	r2,r2,255
  804b50:	1080201c 	xori	r2,r2,128
  804b54:	10bfe004 	addi	r2,r2,-128
  804b58:	10000826 	beq	r2,zero,804b7c <logic+0x4144>
  804b5c:	e0bffc17 	ldw	r2,-16(fp)
  804b60:	10804943 	ldbu	r2,293(r2)
  804b64:	10803fcc 	andi	r2,r2,255
  804b68:	1080201c 	xori	r2,r2,128
  804b6c:	10bfe004 	addi	r2,r2,-128
  804b70:	1000021e 	bne	r2,zero,804b7c <logic+0x4144>
  804b74:	00800044 	movi	r2,1
  804b78:	00000106 	br	804b80 <logic+0x4148>
  804b7c:	0005883a 	mov	r2,zero
  804b80:	1007883a 	mov	r3,r2
  804b84:	e0bffc17 	ldw	r2,-16(fp)
  804b88:	10c03245 	stb	r3,201(r2)
  d->_g106 = d->_pg137;
  804b8c:	e0bffc17 	ldw	r2,-16(fp)
  804b90:	10c05783 	ldbu	r3,350(r2)
  804b94:	e0bffc17 	ldw	r2,-16(fp)
  804b98:	10c032c5 	stb	r3,203(r2)
  d->_cg142 = d->VS || d->_DDDpacemake2_local__pre_VP_temp;
  804b9c:	e0bffc17 	ldw	r2,-16(fp)
  804ba0:	10800643 	ldbu	r2,25(r2)
  804ba4:	10803fcc 	andi	r2,r2,255
  804ba8:	1080201c 	xori	r2,r2,128
  804bac:	10bfe004 	addi	r2,r2,-128
  804bb0:	1000061e 	bne	r2,zero,804bcc <logic+0x4194>
  804bb4:	e0bffc17 	ldw	r2,-16(fp)
  804bb8:	10801b43 	ldbu	r2,109(r2)
  804bbc:	10803fcc 	andi	r2,r2,255
  804bc0:	1080201c 	xori	r2,r2,128
  804bc4:	10bfe004 	addi	r2,r2,-128
  804bc8:	10000226 	beq	r2,zero,804bd4 <logic+0x419c>
  804bcc:	00800044 	movi	r2,1
  804bd0:	00000106 	br	804bd8 <logic+0x41a0>
  804bd4:	0005883a 	mov	r2,zero
  804bd8:	1007883a 	mov	r3,r2
  804bdc:	e0bffc17 	ldw	r2,-16(fp)
  804be0:	10c04b45 	stb	r3,301(r2)
  d->_g110 = d->_g106 && d->_cg142;
  804be4:	e0bffc17 	ldw	r2,-16(fp)
  804be8:	108032c3 	ldbu	r2,203(r2)
  804bec:	10803fcc 	andi	r2,r2,255
  804bf0:	1080201c 	xori	r2,r2,128
  804bf4:	10bfe004 	addi	r2,r2,-128
  804bf8:	10000826 	beq	r2,zero,804c1c <logic+0x41e4>
  804bfc:	e0bffc17 	ldw	r2,-16(fp)
  804c00:	10804b43 	ldbu	r2,301(r2)
  804c04:	10803fcc 	andi	r2,r2,255
  804c08:	1080201c 	xori	r2,r2,128
  804c0c:	10bfe004 	addi	r2,r2,-128
  804c10:	10000226 	beq	r2,zero,804c1c <logic+0x41e4>
  804c14:	00800044 	movi	r2,1
  804c18:	00000106 	br	804c20 <logic+0x41e8>
  804c1c:	0005883a 	mov	r2,zero
  804c20:	1007883a 	mov	r3,r2
  804c24:	e0bffc17 	ldw	r2,-16(fp)
  804c28:	10c03385 	stb	r3,206(r2)
  if (d->_g110) {
  804c2c:	e0bffc17 	ldw	r2,-16(fp)
  804c30:	10803383 	ldbu	r2,206(r2)
  804c34:	10803fcc 	andi	r2,r2,255
  804c38:	1080201c 	xori	r2,r2,128
  804c3c:	10bfe004 	addi	r2,r2,-128
  804c40:	10000326 	beq	r2,zero,804c50 <logic+0x4218>
    d->_DDDpacemake2_local__Atrig9 = 1;
  804c44:	e0bffc17 	ldw	r2,-16(fp)
  804c48:	00c00044 	movi	r3,1
  804c4c:	10c01e45 	stb	r3,121(r2)
  }
  d->_g112 = d->_pg148;
  804c50:	e0bffc17 	ldw	r2,-16(fp)
  804c54:	10c057c3 	ldbu	r3,351(r2)
  804c58:	e0bffc17 	ldw	r2,-16(fp)
  804c5c:	10c03405 	stb	r3,208(r2)
  if (d->_g112) {
  804c60:	e0bffc17 	ldw	r2,-16(fp)
  804c64:	10803403 	ldbu	r2,208(r2)
  804c68:	10803fcc 	andi	r2,r2,255
  804c6c:	1080201c 	xori	r2,r2,128
  804c70:	10bfe004 	addi	r2,r2,-128
  804c74:	10001226 	beq	r2,zero,804cc0 <logic+0x4288>
    d->LRI_counter += d->deltaT;
  804c78:	e13ffc17 	ldw	r4,-16(fp)
  804c7c:	20800f17 	ldw	r2,60(r4)
  804c80:	20c01017 	ldw	r3,64(r4)
  804c84:	e1bffc17 	ldw	r6,-16(fp)
  804c88:	31001417 	ldw	r4,80(r6)
  804c8c:	31401517 	ldw	r5,84(r6)
  804c90:	200d883a 	mov	r6,r4
  804c94:	280f883a 	mov	r7,r5
  804c98:	1009883a 	mov	r4,r2
  804c9c:	180b883a 	mov	r5,r3
  804ca0:	0805cd00 	call	805cd0 <__adddf3>
  804ca4:	1009883a 	mov	r4,r2
  804ca8:	180b883a 	mov	r5,r3
  804cac:	2005883a 	mov	r2,r4
  804cb0:	2807883a 	mov	r3,r5
  804cb4:	e13ffc17 	ldw	r4,-16(fp)
  804cb8:	20800f15 	stw	r2,60(r4)
  804cbc:	20c01015 	stw	r3,64(r4)
  }
  d->_g115 = d->_g106 && !d->_cg142;
  804cc0:	e0bffc17 	ldw	r2,-16(fp)
  804cc4:	108032c3 	ldbu	r2,203(r2)
  804cc8:	10803fcc 	andi	r2,r2,255
  804ccc:	1080201c 	xori	r2,r2,128
  804cd0:	10bfe004 	addi	r2,r2,-128
  804cd4:	10000826 	beq	r2,zero,804cf8 <logic+0x42c0>
  804cd8:	e0bffc17 	ldw	r2,-16(fp)
  804cdc:	10804b43 	ldbu	r2,301(r2)
  804ce0:	10803fcc 	andi	r2,r2,255
  804ce4:	1080201c 	xori	r2,r2,128
  804ce8:	10bfe004 	addi	r2,r2,-128
  804cec:	1000021e 	bne	r2,zero,804cf8 <logic+0x42c0>
  804cf0:	00800044 	movi	r2,1
  804cf4:	00000106 	br	804cfc <logic+0x42c4>
  804cf8:	0005883a 	mov	r2,zero
  804cfc:	1007883a 	mov	r3,r2
  804d00:	e0bffc17 	ldw	r2,-16(fp)
  804d04:	10c03485 	stb	r3,210(r2)
  d->_cg145 = d->LRI_counter >= d->LRI_DEADLINE;
  804d08:	e0bffc17 	ldw	r2,-16(fp)
  804d0c:	14000f17 	ldw	r16,60(r2)
  804d10:	14401017 	ldw	r17,64(r2)
  804d14:	e0bffc17 	ldw	r2,-16(fp)
  804d18:	10800317 	ldw	r2,12(r2)
  804d1c:	1009883a 	mov	r4,r2
  804d20:	08077600 	call	807760 <__floatsidf>
  804d24:	1009883a 	mov	r4,r2
  804d28:	180b883a 	mov	r5,r3
  804d2c:	04800044 	movi	r18,1
  804d30:	200d883a 	mov	r6,r4
  804d34:	280f883a 	mov	r7,r5
  804d38:	8009883a 	mov	r4,r16
  804d3c:	880b883a 	mov	r5,r17
  804d40:	080657c0 	call	80657c <__gedf2>
  804d44:	1000010e 	bge	r2,zero,804d4c <logic+0x4314>
  804d48:	0025883a 	mov	r18,zero
  804d4c:	9007883a 	mov	r3,r18
  804d50:	e0bffc17 	ldw	r2,-16(fp)
  804d54:	10c04b05 	stb	r3,300(r2)
  d->_g121 = d->_g115 && d->_cg145;
  804d58:	e0bffc17 	ldw	r2,-16(fp)
  804d5c:	10803483 	ldbu	r2,210(r2)
  804d60:	10803fcc 	andi	r2,r2,255
  804d64:	1080201c 	xori	r2,r2,128
  804d68:	10bfe004 	addi	r2,r2,-128
  804d6c:	10000826 	beq	r2,zero,804d90 <logic+0x4358>
  804d70:	e0bffc17 	ldw	r2,-16(fp)
  804d74:	10804b03 	ldbu	r2,300(r2)
  804d78:	10803fcc 	andi	r2,r2,255
  804d7c:	1080201c 	xori	r2,r2,128
  804d80:	10bfe004 	addi	r2,r2,-128
  804d84:	10000226 	beq	r2,zero,804d90 <logic+0x4358>
  804d88:	00800044 	movi	r2,1
  804d8c:	00000106 	br	804d94 <logic+0x435c>
  804d90:	0005883a 	mov	r2,zero
  804d94:	1007883a 	mov	r3,r2
  804d98:	e0bffc17 	ldw	r2,-16(fp)
  804d9c:	10c03585 	stb	r3,214(r2)
  if (d->_g121) {
  804da0:	e0bffc17 	ldw	r2,-16(fp)
  804da4:	10803583 	ldbu	r2,214(r2)
  804da8:	10803fcc 	andi	r2,r2,255
  804dac:	1080201c 	xori	r2,r2,128
  804db0:	10bfe004 	addi	r2,r2,-128
  804db4:	10000326 	beq	r2,zero,804dc4 <logic+0x438c>
    d->_DDDpacemake2_local__Atrig10 = 1;
  804db8:	e0bffc17 	ldw	r2,-16(fp)
  804dbc:	00c00044 	movi	r3,1
  804dc0:	10c01e85 	stb	r3,122(r2)
  }
  d->_g104 = d->_pg144;
  804dc4:	e0bffc17 	ldw	r2,-16(fp)
  804dc8:	10c05803 	ldbu	r3,352(r2)
  804dcc:	e0bffc17 	ldw	r2,-16(fp)
  804dd0:	10c03285 	stb	r3,202(r2)
  d->_cg129 = d->VS || d->_DDDpacemake2_local__pre_VP_temp;
  804dd4:	e0bffc17 	ldw	r2,-16(fp)
  804dd8:	10800643 	ldbu	r2,25(r2)
  804ddc:	10803fcc 	andi	r2,r2,255
  804de0:	1080201c 	xori	r2,r2,128
  804de4:	10bfe004 	addi	r2,r2,-128
  804de8:	1000061e 	bne	r2,zero,804e04 <logic+0x43cc>
  804dec:	e0bffc17 	ldw	r2,-16(fp)
  804df0:	10801b43 	ldbu	r2,109(r2)
  804df4:	10803fcc 	andi	r2,r2,255
  804df8:	1080201c 	xori	r2,r2,128
  804dfc:	10bfe004 	addi	r2,r2,-128
  804e00:	10000226 	beq	r2,zero,804e0c <logic+0x43d4>
  804e04:	00800044 	movi	r2,1
  804e08:	00000106 	br	804e10 <logic+0x43d8>
  804e0c:	0005883a 	mov	r2,zero
  804e10:	1007883a 	mov	r3,r2
  804e14:	e0bffc17 	ldw	r2,-16(fp)
  804e18:	10c04a05 	stb	r3,296(r2)
  d->_g142 = d->_g104 && d->_cg129;
  804e1c:	e0bffc17 	ldw	r2,-16(fp)
  804e20:	10803283 	ldbu	r2,202(r2)
  804e24:	10803fcc 	andi	r2,r2,255
  804e28:	1080201c 	xori	r2,r2,128
  804e2c:	10bfe004 	addi	r2,r2,-128
  804e30:	10000826 	beq	r2,zero,804e54 <logic+0x441c>
  804e34:	e0bffc17 	ldw	r2,-16(fp)
  804e38:	10804a03 	ldbu	r2,296(r2)
  804e3c:	10803fcc 	andi	r2,r2,255
  804e40:	1080201c 	xori	r2,r2,128
  804e44:	10bfe004 	addi	r2,r2,-128
  804e48:	10000226 	beq	r2,zero,804e54 <logic+0x441c>
  804e4c:	00800044 	movi	r2,1
  804e50:	00000106 	br	804e58 <logic+0x4420>
  804e54:	0005883a 	mov	r2,zero
  804e58:	1007883a 	mov	r3,r2
  804e5c:	e0bffc17 	ldw	r2,-16(fp)
  804e60:	10c03945 	stb	r3,229(r2)
  if (d->_g142) {
  804e64:	e0bffc17 	ldw	r2,-16(fp)
  804e68:	10803943 	ldbu	r2,229(r2)
  804e6c:	10803fcc 	andi	r2,r2,255
  804e70:	1080201c 	xori	r2,r2,128
  804e74:	10bfe004 	addi	r2,r2,-128
  804e78:	10000a26 	beq	r2,zero,804ea4 <logic+0x446c>
    d->_DDDpacemake2_local_LRI_state = 1;
  804e7c:	e0bffc17 	ldw	r2,-16(fp)
  804e80:	00c00044 	movi	r3,1
  804e84:	10c01885 	stb	r3,98(r2)
    d->LRI_counter = 0;
  804e88:	e0bffc17 	ldw	r2,-16(fp)
  804e8c:	10000f15 	stw	zero,60(r2)
  804e90:	10001015 	stw	zero,64(r2)
    d->_DDDpacemake2_local__Atrig9 = 0;
  804e94:	e0bffc17 	ldw	r2,-16(fp)
  804e98:	10001e45 	stb	zero,121(r2)
    d->_DDDpacemake2_local__Atrig10 = 0;
  804e9c:	e0bffc17 	ldw	r2,-16(fp)
  804ea0:	10001e85 	stb	zero,122(r2)
  }
  d->_g136 = d->_pg135;
  804ea4:	e0bffc17 	ldw	r2,-16(fp)
  804ea8:	10c05843 	ldbu	r3,353(r2)
  804eac:	e0bffc17 	ldw	r2,-16(fp)
  804eb0:	10c03845 	stb	r3,225(r2)
  d->_g139 = d->_pg138;
  804eb4:	e0bffc17 	ldw	r2,-16(fp)
  804eb8:	10c05883 	ldbu	r3,354(r2)
  804ebc:	e0bffc17 	ldw	r2,-16(fp)
  804ec0:	10c03905 	stb	r3,228(r2)
  d->_g139 = d->_g142 || d->_g136 || d->_g139;
  804ec4:	e0bffc17 	ldw	r2,-16(fp)
  804ec8:	10803943 	ldbu	r2,229(r2)
  804ecc:	10803fcc 	andi	r2,r2,255
  804ed0:	1080201c 	xori	r2,r2,128
  804ed4:	10bfe004 	addi	r2,r2,-128
  804ed8:	10000c1e 	bne	r2,zero,804f0c <logic+0x44d4>
  804edc:	e0bffc17 	ldw	r2,-16(fp)
  804ee0:	10803843 	ldbu	r2,225(r2)
  804ee4:	10803fcc 	andi	r2,r2,255
  804ee8:	1080201c 	xori	r2,r2,128
  804eec:	10bfe004 	addi	r2,r2,-128
  804ef0:	1000061e 	bne	r2,zero,804f0c <logic+0x44d4>
  804ef4:	e0bffc17 	ldw	r2,-16(fp)
  804ef8:	10803903 	ldbu	r2,228(r2)
  804efc:	10803fcc 	andi	r2,r2,255
  804f00:	1080201c 	xori	r2,r2,128
  804f04:	10bfe004 	addi	r2,r2,-128
  804f08:	10000226 	beq	r2,zero,804f14 <logic+0x44dc>
  804f0c:	00800044 	movi	r2,1
  804f10:	00000106 	br	804f18 <logic+0x44e0>
  804f14:	0005883a 	mov	r2,zero
  804f18:	1007883a 	mov	r3,r2
  804f1c:	e0bffc17 	ldw	r2,-16(fp)
  804f20:	10c03905 	stb	r3,228(r2)
  d->_cg132 = d->LRI_counter < d->LRI_DEADLINE;
  804f24:	e0bffc17 	ldw	r2,-16(fp)
  804f28:	14000f17 	ldw	r16,60(r2)
  804f2c:	14401017 	ldw	r17,64(r2)
  804f30:	e0bffc17 	ldw	r2,-16(fp)
  804f34:	10800317 	ldw	r2,12(r2)
  804f38:	1009883a 	mov	r4,r2
  804f3c:	08077600 	call	807760 <__floatsidf>
  804f40:	1009883a 	mov	r4,r2
  804f44:	180b883a 	mov	r5,r3
  804f48:	04800044 	movi	r18,1
  804f4c:	200d883a 	mov	r6,r4
  804f50:	280f883a 	mov	r7,r5
  804f54:	8009883a 	mov	r4,r16
  804f58:	880b883a 	mov	r5,r17
  804f5c:	08066580 	call	806658 <__ledf2>
  804f60:	10000116 	blt	r2,zero,804f68 <logic+0x4530>
  804f64:	0025883a 	mov	r18,zero
  804f68:	9007883a 	mov	r3,r18
  804f6c:	e0bffc17 	ldw	r2,-16(fp)
  804f70:	10c04a45 	stb	r3,297(r2)
  d->_g136 = d->_g139 && !d->_cg132;
  804f74:	e0bffc17 	ldw	r2,-16(fp)
  804f78:	10803903 	ldbu	r2,228(r2)
  804f7c:	10803fcc 	andi	r2,r2,255
  804f80:	1080201c 	xori	r2,r2,128
  804f84:	10bfe004 	addi	r2,r2,-128
  804f88:	10000826 	beq	r2,zero,804fac <logic+0x4574>
  804f8c:	e0bffc17 	ldw	r2,-16(fp)
  804f90:	10804a43 	ldbu	r2,297(r2)
  804f94:	10803fcc 	andi	r2,r2,255
  804f98:	1080201c 	xori	r2,r2,128
  804f9c:	10bfe004 	addi	r2,r2,-128
  804fa0:	1000021e 	bne	r2,zero,804fac <logic+0x4574>
  804fa4:	00800044 	movi	r2,1
  804fa8:	00000106 	br	804fb0 <logic+0x4578>
  804fac:	0005883a 	mov	r2,zero
  804fb0:	1007883a 	mov	r3,r2
  804fb4:	e0bffc17 	ldw	r2,-16(fp)
  804fb8:	10c03845 	stb	r3,225(r2)
  d->_cg137 = d->_DDDpacemake2_local__Atrig9 || d->_DDDpacemake2_local__Atrig10;
  804fbc:	e0bffc17 	ldw	r2,-16(fp)
  804fc0:	10801e43 	ldbu	r2,121(r2)
  804fc4:	10803fcc 	andi	r2,r2,255
  804fc8:	1080201c 	xori	r2,r2,128
  804fcc:	10bfe004 	addi	r2,r2,-128
  804fd0:	1000061e 	bne	r2,zero,804fec <logic+0x45b4>
  804fd4:	e0bffc17 	ldw	r2,-16(fp)
  804fd8:	10801e83 	ldbu	r2,122(r2)
  804fdc:	10803fcc 	andi	r2,r2,255
  804fe0:	1080201c 	xori	r2,r2,128
  804fe4:	10bfe004 	addi	r2,r2,-128
  804fe8:	10000226 	beq	r2,zero,804ff4 <logic+0x45bc>
  804fec:	00800044 	movi	r2,1
  804ff0:	00000106 	br	804ff8 <logic+0x45c0>
  804ff4:	0005883a 	mov	r2,zero
  804ff8:	1007883a 	mov	r3,r2
  804ffc:	e0bffc17 	ldw	r2,-16(fp)
  805000:	10c04ac5 	stb	r3,299(r2)
  d->_g138 = d->_g136 && !d->_cg137;
  805004:	e0bffc17 	ldw	r2,-16(fp)
  805008:	10803843 	ldbu	r2,225(r2)
  80500c:	10803fcc 	andi	r2,r2,255
  805010:	1080201c 	xori	r2,r2,128
  805014:	10bfe004 	addi	r2,r2,-128
  805018:	10000826 	beq	r2,zero,80503c <logic+0x4604>
  80501c:	e0bffc17 	ldw	r2,-16(fp)
  805020:	10804ac3 	ldbu	r2,299(r2)
  805024:	10803fcc 	andi	r2,r2,255
  805028:	1080201c 	xori	r2,r2,128
  80502c:	10bfe004 	addi	r2,r2,-128
  805030:	1000021e 	bne	r2,zero,80503c <logic+0x4604>
  805034:	00800044 	movi	r2,1
  805038:	00000106 	br	805040 <logic+0x4608>
  80503c:	0005883a 	mov	r2,zero
  805040:	1007883a 	mov	r3,r2
  805044:	e0bffc17 	ldw	r2,-16(fp)
  805048:	10c038c5 	stb	r3,227(r2)
  d->_g132 = d->_g139 && d->_cg132;
  80504c:	e0bffc17 	ldw	r2,-16(fp)
  805050:	10803903 	ldbu	r2,228(r2)
  805054:	10803fcc 	andi	r2,r2,255
  805058:	1080201c 	xori	r2,r2,128
  80505c:	10bfe004 	addi	r2,r2,-128
  805060:	10000826 	beq	r2,zero,805084 <logic+0x464c>
  805064:	e0bffc17 	ldw	r2,-16(fp)
  805068:	10804a43 	ldbu	r2,297(r2)
  80506c:	10803fcc 	andi	r2,r2,255
  805070:	1080201c 	xori	r2,r2,128
  805074:	10bfe004 	addi	r2,r2,-128
  805078:	10000226 	beq	r2,zero,805084 <logic+0x464c>
  80507c:	00800044 	movi	r2,1
  805080:	00000106 	br	805088 <logic+0x4650>
  805084:	0005883a 	mov	r2,zero
  805088:	1007883a 	mov	r3,r2
  80508c:	e0bffc17 	ldw	r2,-16(fp)
  805090:	10c03745 	stb	r3,221(r2)
  if (d->_g132) {
  805094:	e0bffc17 	ldw	r2,-16(fp)
  805098:	10803743 	ldbu	r2,221(r2)
  80509c:	10803fcc 	andi	r2,r2,255
  8050a0:	1080201c 	xori	r2,r2,128
  8050a4:	10bfe004 	addi	r2,r2,-128
  8050a8:	10003426 	beq	r2,zero,80517c <logic+0x4744>
    d->sleepT = (d->sleepT < (d->LRI_DEADLINE - d->LRI_counter)) ? d->sleepT : (d->LRI_DEADLINE - d->LRI_counter);
  8050ac:	e0bffc17 	ldw	r2,-16(fp)
  8050b0:	14001617 	ldw	r16,88(r2)
  8050b4:	14401717 	ldw	r17,92(r2)
  8050b8:	e0bffc17 	ldw	r2,-16(fp)
  8050bc:	10800317 	ldw	r2,12(r2)
  8050c0:	1009883a 	mov	r4,r2
  8050c4:	08077600 	call	807760 <__floatsidf>
  8050c8:	1011883a 	mov	r8,r2
  8050cc:	1813883a 	mov	r9,r3
  8050d0:	e13ffc17 	ldw	r4,-16(fp)
  8050d4:	20800f17 	ldw	r2,60(r4)
  8050d8:	20c01017 	ldw	r3,64(r4)
  8050dc:	100d883a 	mov	r6,r2
  8050e0:	180f883a 	mov	r7,r3
  8050e4:	4009883a 	mov	r4,r8
  8050e8:	480b883a 	mov	r5,r9
  8050ec:	0806e640 	call	806e64 <__subdf3>
  8050f0:	1009883a 	mov	r4,r2
  8050f4:	180b883a 	mov	r5,r3
  8050f8:	2005883a 	mov	r2,r4
  8050fc:	2807883a 	mov	r3,r5
  805100:	100d883a 	mov	r6,r2
  805104:	180f883a 	mov	r7,r3
  805108:	8009883a 	mov	r4,r16
  80510c:	880b883a 	mov	r5,r17
  805110:	08066580 	call	806658 <__ledf2>
  805114:	1000040e 	bge	r2,zero,805128 <logic+0x46f0>
  805118:	e13ffc17 	ldw	r4,-16(fp)
  80511c:	20801617 	ldw	r2,88(r4)
  805120:	20c01717 	ldw	r3,92(r4)
  805124:	00001206 	br	805170 <logic+0x4738>
  805128:	e0bffc17 	ldw	r2,-16(fp)
  80512c:	10800317 	ldw	r2,12(r2)
  805130:	1009883a 	mov	r4,r2
  805134:	08077600 	call	807760 <__floatsidf>
  805138:	1011883a 	mov	r8,r2
  80513c:	1813883a 	mov	r9,r3
  805140:	e13ffc17 	ldw	r4,-16(fp)
  805144:	20800f17 	ldw	r2,60(r4)
  805148:	20c01017 	ldw	r3,64(r4)
  80514c:	100d883a 	mov	r6,r2
  805150:	180f883a 	mov	r7,r3
  805154:	4009883a 	mov	r4,r8
  805158:	480b883a 	mov	r5,r9
  80515c:	0806e640 	call	806e64 <__subdf3>
  805160:	1009883a 	mov	r4,r2
  805164:	180b883a 	mov	r5,r3
  805168:	2005883a 	mov	r2,r4
  80516c:	2807883a 	mov	r3,r5
  805170:	e13ffc17 	ldw	r4,-16(fp)
  805174:	20801615 	stw	r2,88(r4)
  805178:	20c01715 	stw	r3,92(r4)
  }
  d->_cg133 = d->_DDDpacemake2_local__Atrig9 || d->_DDDpacemake2_local__Atrig10;
  80517c:	e0bffc17 	ldw	r2,-16(fp)
  805180:	10801e43 	ldbu	r2,121(r2)
  805184:	10803fcc 	andi	r2,r2,255
  805188:	1080201c 	xori	r2,r2,128
  80518c:	10bfe004 	addi	r2,r2,-128
  805190:	1000061e 	bne	r2,zero,8051ac <logic+0x4774>
  805194:	e0bffc17 	ldw	r2,-16(fp)
  805198:	10801e83 	ldbu	r2,122(r2)
  80519c:	10803fcc 	andi	r2,r2,255
  8051a0:	1080201c 	xori	r2,r2,128
  8051a4:	10bfe004 	addi	r2,r2,-128
  8051a8:	10000226 	beq	r2,zero,8051b4 <logic+0x477c>
  8051ac:	00800044 	movi	r2,1
  8051b0:	00000106 	br	8051b8 <logic+0x4780>
  8051b4:	0005883a 	mov	r2,zero
  8051b8:	1007883a 	mov	r3,r2
  8051bc:	e0bffc17 	ldw	r2,-16(fp)
  8051c0:	10c04a85 	stb	r3,298(r2)
  d->_g135 = d->_g132 && !d->_cg133;
  8051c4:	e0bffc17 	ldw	r2,-16(fp)
  8051c8:	10803743 	ldbu	r2,221(r2)
  8051cc:	10803fcc 	andi	r2,r2,255
  8051d0:	1080201c 	xori	r2,r2,128
  8051d4:	10bfe004 	addi	r2,r2,-128
  8051d8:	10000826 	beq	r2,zero,8051fc <logic+0x47c4>
  8051dc:	e0bffc17 	ldw	r2,-16(fp)
  8051e0:	10804a83 	ldbu	r2,298(r2)
  8051e4:	10803fcc 	andi	r2,r2,255
  8051e8:	1080201c 	xori	r2,r2,128
  8051ec:	10bfe004 	addi	r2,r2,-128
  8051f0:	1000021e 	bne	r2,zero,8051fc <logic+0x47c4>
  8051f4:	00800044 	movi	r2,1
  8051f8:	00000106 	br	805200 <logic+0x47c8>
  8051fc:	0005883a 	mov	r2,zero
  805200:	1007883a 	mov	r3,r2
  805204:	e0bffc17 	ldw	r2,-16(fp)
  805208:	10c03805 	stb	r3,224(r2)
  d->_g134_e1 = !(d->_g138 || d->_g135);
  80520c:	e0bffc17 	ldw	r2,-16(fp)
  805210:	108038c3 	ldbu	r2,227(r2)
  805214:	10803fcc 	andi	r2,r2,255
  805218:	1080201c 	xori	r2,r2,128
  80521c:	10bfe004 	addi	r2,r2,-128
  805220:	1000081e 	bne	r2,zero,805244 <logic+0x480c>
  805224:	e0bffc17 	ldw	r2,-16(fp)
  805228:	10803803 	ldbu	r2,224(r2)
  80522c:	10803fcc 	andi	r2,r2,255
  805230:	1080201c 	xori	r2,r2,128
  805234:	10bfe004 	addi	r2,r2,-128
  805238:	1000021e 	bne	r2,zero,805244 <logic+0x480c>
  80523c:	00800044 	movi	r2,1
  805240:	00000106 	br	805248 <logic+0x4810>
  805244:	0005883a 	mov	r2,zero
  805248:	1007883a 	mov	r3,r2
  80524c:	e0bffc17 	ldw	r2,-16(fp)
  805250:	10c04f45 	stb	r3,317(r2)
  d->_g133 = d->_g132 && d->_cg133 || d->_g136 && d->_cg137;
  805254:	e0bffc17 	ldw	r2,-16(fp)
  805258:	10803743 	ldbu	r2,221(r2)
  80525c:	10803fcc 	andi	r2,r2,255
  805260:	1080201c 	xori	r2,r2,128
  805264:	10bfe004 	addi	r2,r2,-128
  805268:	10000626 	beq	r2,zero,805284 <logic+0x484c>
  80526c:	e0bffc17 	ldw	r2,-16(fp)
  805270:	10804a83 	ldbu	r2,298(r2)
  805274:	10803fcc 	andi	r2,r2,255
  805278:	1080201c 	xori	r2,r2,128
  80527c:	10bfe004 	addi	r2,r2,-128
  805280:	10000c1e 	bne	r2,zero,8052b4 <logic+0x487c>
  805284:	e0bffc17 	ldw	r2,-16(fp)
  805288:	10803843 	ldbu	r2,225(r2)
  80528c:	10803fcc 	andi	r2,r2,255
  805290:	1080201c 	xori	r2,r2,128
  805294:	10bfe004 	addi	r2,r2,-128
  805298:	10000826 	beq	r2,zero,8052bc <logic+0x4884>
  80529c:	e0bffc17 	ldw	r2,-16(fp)
  8052a0:	10804ac3 	ldbu	r2,299(r2)
  8052a4:	10803fcc 	andi	r2,r2,255
  8052a8:	1080201c 	xori	r2,r2,128
  8052ac:	10bfe004 	addi	r2,r2,-128
  8052b0:	10000226 	beq	r2,zero,8052bc <logic+0x4884>
  8052b4:	00800044 	movi	r2,1
  8052b8:	00000106 	br	8052c0 <logic+0x4888>
  8052bc:	0005883a 	mov	r2,zero
  8052c0:	1007883a 	mov	r3,r2
  8052c4:	e0bffc17 	ldw	r2,-16(fp)
  8052c8:	10c03785 	stb	r3,222(r2)
  d->_g137 = d->_g142 || d->_g115 && !d->_cg145;
  8052cc:	e0bffc17 	ldw	r2,-16(fp)
  8052d0:	10803943 	ldbu	r2,229(r2)
  8052d4:	10803fcc 	andi	r2,r2,255
  8052d8:	1080201c 	xori	r2,r2,128
  8052dc:	10bfe004 	addi	r2,r2,-128
  8052e0:	10000c1e 	bne	r2,zero,805314 <logic+0x48dc>
  8052e4:	e0bffc17 	ldw	r2,-16(fp)
  8052e8:	10803483 	ldbu	r2,210(r2)
  8052ec:	10803fcc 	andi	r2,r2,255
  8052f0:	1080201c 	xori	r2,r2,128
  8052f4:	10bfe004 	addi	r2,r2,-128
  8052f8:	10000826 	beq	r2,zero,80531c <logic+0x48e4>
  8052fc:	e0bffc17 	ldw	r2,-16(fp)
  805300:	10804b03 	ldbu	r2,300(r2)
  805304:	10803fcc 	andi	r2,r2,255
  805308:	1080201c 	xori	r2,r2,128
  80530c:	10bfe004 	addi	r2,r2,-128
  805310:	1000021e 	bne	r2,zero,80531c <logic+0x48e4>
  805314:	00800044 	movi	r2,1
  805318:	00000106 	br	805320 <logic+0x48e8>
  80531c:	0005883a 	mov	r2,zero
  805320:	1007883a 	mov	r3,r2
  805324:	e0bffc17 	ldw	r2,-16(fp)
  805328:	10c03885 	stb	r3,226(r2)
  d->_g130 = !d->_g137;
  80532c:	e0bffc17 	ldw	r2,-16(fp)
  805330:	10803883 	ldbu	r2,226(r2)
  805334:	10803fcc 	andi	r2,r2,255
  805338:	1080201c 	xori	r2,r2,128
  80533c:	10bfe004 	addi	r2,r2,-128
  805340:	1005003a 	cmpeq	r2,r2,zero
  805344:	1007883a 	mov	r3,r2
  805348:	e0bffc17 	ldw	r2,-16(fp)
  80534c:	10c03705 	stb	r3,220(r2)
  d->_g145 = d->_g110 || d->_g121;
  805350:	e0bffc17 	ldw	r2,-16(fp)
  805354:	10803383 	ldbu	r2,206(r2)
  805358:	10803fcc 	andi	r2,r2,255
  80535c:	1080201c 	xori	r2,r2,128
  805360:	10bfe004 	addi	r2,r2,-128
  805364:	1000061e 	bne	r2,zero,805380 <logic+0x4948>
  805368:	e0bffc17 	ldw	r2,-16(fp)
  80536c:	10803583 	ldbu	r2,214(r2)
  805370:	10803fcc 	andi	r2,r2,255
  805374:	1080201c 	xori	r2,r2,128
  805378:	10bfe004 	addi	r2,r2,-128
  80537c:	10000226 	beq	r2,zero,805388 <logic+0x4950>
  805380:	00800044 	movi	r2,1
  805384:	00000106 	br	80538c <logic+0x4954>
  805388:	0005883a 	mov	r2,zero
  80538c:	1007883a 	mov	r3,r2
  805390:	e0bffc17 	ldw	r2,-16(fp)
  805394:	10c03a05 	stb	r3,232(r2)
  d->_g146 = (d->_g134_e1 || d->_g133) && (d->_g130 || d->_g145) && (d->_g133 || d->_g145);
  805398:	e0bffc17 	ldw	r2,-16(fp)
  80539c:	10804f43 	ldbu	r2,317(r2)
  8053a0:	10803fcc 	andi	r2,r2,255
  8053a4:	1080201c 	xori	r2,r2,128
  8053a8:	10bfe004 	addi	r2,r2,-128
  8053ac:	1000061e 	bne	r2,zero,8053c8 <logic+0x4990>
  8053b0:	e0bffc17 	ldw	r2,-16(fp)
  8053b4:	10803783 	ldbu	r2,222(r2)
  8053b8:	10803fcc 	andi	r2,r2,255
  8053bc:	1080201c 	xori	r2,r2,128
  8053c0:	10bfe004 	addi	r2,r2,-128
  8053c4:	10001a26 	beq	r2,zero,805430 <logic+0x49f8>
  8053c8:	e0bffc17 	ldw	r2,-16(fp)
  8053cc:	10803703 	ldbu	r2,220(r2)
  8053d0:	10803fcc 	andi	r2,r2,255
  8053d4:	1080201c 	xori	r2,r2,128
  8053d8:	10bfe004 	addi	r2,r2,-128
  8053dc:	1000061e 	bne	r2,zero,8053f8 <logic+0x49c0>
  8053e0:	e0bffc17 	ldw	r2,-16(fp)
  8053e4:	10803a03 	ldbu	r2,232(r2)
  8053e8:	10803fcc 	andi	r2,r2,255
  8053ec:	1080201c 	xori	r2,r2,128
  8053f0:	10bfe004 	addi	r2,r2,-128
  8053f4:	10000e26 	beq	r2,zero,805430 <logic+0x49f8>
  8053f8:	e0bffc17 	ldw	r2,-16(fp)
  8053fc:	10803783 	ldbu	r2,222(r2)
  805400:	10803fcc 	andi	r2,r2,255
  805404:	1080201c 	xori	r2,r2,128
  805408:	10bfe004 	addi	r2,r2,-128
  80540c:	1000061e 	bne	r2,zero,805428 <logic+0x49f0>
  805410:	e0bffc17 	ldw	r2,-16(fp)
  805414:	10803a03 	ldbu	r2,232(r2)
  805418:	10803fcc 	andi	r2,r2,255
  80541c:	1080201c 	xori	r2,r2,128
  805420:	10bfe004 	addi	r2,r2,-128
  805424:	10000226 	beq	r2,zero,805430 <logic+0x49f8>
  805428:	00800044 	movi	r2,1
  80542c:	00000106 	br	805434 <logic+0x49fc>
  805430:	0005883a 	mov	r2,zero
  805434:	1007883a 	mov	r3,r2
  805438:	e0bffc17 	ldw	r2,-16(fp)
  80543c:	10c03a45 	stb	r3,233(r2)
  d->_cg147 = d->_DDDpacemake2_local__Atrig9;
  805440:	e0bffc17 	ldw	r2,-16(fp)
  805444:	10c01e43 	ldbu	r3,121(r2)
  805448:	e0bffc17 	ldw	r2,-16(fp)
  80544c:	10c04b85 	stb	r3,302(r2)
  d->_g143 = d->_g146 && d->_cg147;
  805450:	e0bffc17 	ldw	r2,-16(fp)
  805454:	10803a43 	ldbu	r2,233(r2)
  805458:	10803fcc 	andi	r2,r2,255
  80545c:	1080201c 	xori	r2,r2,128
  805460:	10bfe004 	addi	r2,r2,-128
  805464:	10000826 	beq	r2,zero,805488 <logic+0x4a50>
  805468:	e0bffc17 	ldw	r2,-16(fp)
  80546c:	10804b83 	ldbu	r2,302(r2)
  805470:	10803fcc 	andi	r2,r2,255
  805474:	1080201c 	xori	r2,r2,128
  805478:	10bfe004 	addi	r2,r2,-128
  80547c:	10000226 	beq	r2,zero,805488 <logic+0x4a50>
  805480:	00800044 	movi	r2,1
  805484:	00000106 	br	80548c <logic+0x4a54>
  805488:	0005883a 	mov	r2,zero
  80548c:	1007883a 	mov	r3,r2
  805490:	e0bffc17 	ldw	r2,-16(fp)
  805494:	10c03985 	stb	r3,230(r2)
  if (d->_g143) {
  805498:	e0bffc17 	ldw	r2,-16(fp)
  80549c:	10803983 	ldbu	r2,230(r2)
  8054a0:	10803fcc 	andi	r2,r2,255
  8054a4:	1080201c 	xori	r2,r2,128
  8054a8:	10bfe004 	addi	r2,r2,-128
  8054ac:	10000226 	beq	r2,zero,8054b8 <logic+0x4a80>
    d->_DDDpacemake2_local_LRI_state = 0;
  8054b0:	e0bffc17 	ldw	r2,-16(fp)
  8054b4:	10001885 	stb	zero,98(r2)
  }
  d->_g134 = d->_g146 && !d->_cg147;
  8054b8:	e0bffc17 	ldw	r2,-16(fp)
  8054bc:	10803a43 	ldbu	r2,233(r2)
  8054c0:	10803fcc 	andi	r2,r2,255
  8054c4:	1080201c 	xori	r2,r2,128
  8054c8:	10bfe004 	addi	r2,r2,-128
  8054cc:	10000826 	beq	r2,zero,8054f0 <logic+0x4ab8>
  8054d0:	e0bffc17 	ldw	r2,-16(fp)
  8054d4:	10804b83 	ldbu	r2,302(r2)
  8054d8:	10803fcc 	andi	r2,r2,255
  8054dc:	1080201c 	xori	r2,r2,128
  8054e0:	10bfe004 	addi	r2,r2,-128
  8054e4:	1000021e 	bne	r2,zero,8054f0 <logic+0x4ab8>
  8054e8:	00800044 	movi	r2,1
  8054ec:	00000106 	br	8054f4 <logic+0x4abc>
  8054f0:	0005883a 	mov	r2,zero
  8054f4:	1007883a 	mov	r3,r2
  8054f8:	e0bffc17 	ldw	r2,-16(fp)
  8054fc:	10c037c5 	stb	r3,223(r2)
  if (d->_g134) {
  805500:	e0bffc17 	ldw	r2,-16(fp)
  805504:	108037c3 	ldbu	r2,223(r2)
  805508:	10803fcc 	andi	r2,r2,255
  80550c:	1080201c 	xori	r2,r2,128
  805510:	10bfe004 	addi	r2,r2,-128
  805514:	10000226 	beq	r2,zero,805520 <logic+0x4ae8>
    d->_DDDpacemake2_local_LRI_state = 0;
  805518:	e0bffc17 	ldw	r2,-16(fp)
  80551c:	10001885 	stb	zero,98(r2)
  }
  d->_g144 = d->_GO || d->_g143 || d->_g134 || d->_g104 && !d->_cg129;
  805520:	e0bffc17 	ldw	r2,-16(fp)
  805524:	10803ec3 	ldbu	r2,251(r2)
